

Microchip MPLAB XC8 Assembler V2.32 build 20210201212658 
                                                                                               Thu Oct 07 12:24:36 2021

Microchip MPLAB XC8 C Compiler v2.32 (Free license) build 20210201212658 Og1 
     1                           	processor	18F4550
     2                           	fnconf	rparam,??,?,0
     3                           	pagewidth 120
     4                           	opt	flic
     5                           	psect	idataCOMRAM,global,class=CODE,delta=1,noexec
     6                           	psect	cinit,global,reloc=2,class=CODE,delta=1
     7                           	psect	bssCOMRAM,global,class=COMRAM,space=1,delta=1,lowdata,noexec
     8                           	psect	dataCOMRAM,global,class=COMRAM,space=1,delta=1,lowdata,noexec
     9                           	psect	cstackCOMRAM,global,class=COMRAM,space=1,delta=1,lowdata,noexec
    10                           	psect	text0,global,reloc=2,class=CODE,delta=1
    11                           	psect	text1,global,reloc=2,class=CODE,delta=1
    12                           	psect	text2,global,reloc=2,class=CODE,delta=1
    13                           	psect	text3,global,reloc=2,class=CODE,delta=1
    14                           	psect	text4,global,reloc=2,class=CODE,delta=1
    15                           	psect	text5,global,reloc=2,class=CODE,delta=1,group=1
    16                           	psect	text6,global,reloc=2,class=CODE,delta=1,group=1
    17                           	psect	text7,global,reloc=2,class=CODE,delta=1,group=1
    18                           	psect	text8,global,reloc=2,class=CODE,delta=1,group=1
    19                           	psect	text9,global,reloc=2,class=CODE,delta=1,group=1
    20                           	psect	intsave_regs,global,class=BIGRAM,space=1,delta=1,noexec
    21                           	psect	rparam,global,class=COMRAM,space=1,delta=1,noexec
    22                           	psect	idloc,global,abs,ovrld,class=IDLOC,space=5,delta=1,noexec
    23                           	psect	config,global,abs,ovrld,class=CONFIG,space=4,delta=1,noexec
    24  0000                     
    25                           ; Version 2.20
    26                           ; Generated 12/02/2020 GMT
    27                           ; 
    28                           ; Copyright © 2020, Microchip Technology Inc. and its subsidiaries ("Microchip")
    29                           ; All rights reserved.
    30                           ; 
    31                           ; This software is developed by Microchip Technology Inc. and its subsidiaries ("Microch
      +                          ip").
    32                           ; 
    33                           ; Redistribution and use in source and binary forms, with or without modification, are
    34                           ; permitted provided that the following conditions are met:
    35                           ; 
    36                           ;     1. Redistributions of source code must retain the above copyright notice, this lis
      +                          t of
    37                           ;        conditions and the following disclaimer.
    38                           ; 
    39                           ;     2. Redistributions in binary form must reproduce the above copyright notice, this 
      +                          list
    40                           ;        of conditions and the following disclaimer in the documentation and/or other
    41                           ;        materials provided with the distribution.
    42                           ; 
    43                           ;     3. Microchip's name may not be used to endorse or promote products derived from th
      +                          is
    44                           ;        software without specific prior written permission.
    45                           ; 
    46                           ; THIS SOFTWARE IS PROVIDED BY MICROCHIP "AS IS" AND ANY EXPRESS OR IMPLIED WARRANTIES,
    47                           ; INCLUDING, BUT NOT LIMITED TO, THE IMPLIED WARRANTIES OF MERCHANTABILITY AND FITNESS F
      +                          OR
    48                           ; PURPOSE ARE DISCLAIMED.  IN NO EVENT SHALL MICROCHIP BE LIABLE FOR ANY DIRECT, INDIREC
      +                          T,
    49                           ; INCIDENTAL, SPECIAL, EXEMPLARY, OR CONSEQUENTIAL DAMAGES (INCLUDING BUT NOT LIMITED TO
    50                           ; PROCUREMENT OF SUBSTITUTE GOODS OR SERVICES; LOSS OF USE, DATA OR PROFITS; OR BUSINESS
    51                           ; INTERRUPTION) HOWSOEVER CAUSED AND ON ANY THEORY OF LIABILITY, WHETHER IN CONTRACT, ST
      +                          RICT
    52                           ; LIABILITY, OR TORT (INCLUDING NEGLIGENCE OR OTHERWISE) ARISING IN ANY WAY OUT OF THE U
      +                          SE OF
    53                           ; THIS SOFTWARE, EVEN IF ADVISED OF THE POSSIBILITY OF SUCH DAMAGE.
    54                           ; 
    55                           ; 
    56                           ; Code-generator required, PIC18F4550 Definitions
    57                           ; 
    58                           ; SFR Addresses
    59  0000                     
    60                           	psect	idataCOMRAM
    61  006C50                     __pidataCOMRAM:
    62                           	callstack 0
    63                           
    64                           ;initializer for _distancia
    65  006C50  0000               	dw	0
    66  006C52  4000               	dw	16384
    67  0000                     _TMR0	set	4054
    68  0000                     _PORTBbits	set	3969
    69  0000                     _TRISB	set	3987
    70  0000                     _TRISA	set	3986
    71  0000                     _ADCON1	set	4033
    72  0000                     _T0CONbits	set	4053
    73  0000                     _INTCONbits	set	4082
    74  0000                     _PORTAbits	set	3968
    75                           
    76                           ; #config settings
    77                           
    78                           	psect	cinit
    79  006C6A                     __pcinit:
    80                           	callstack 0
    81  006C6A                     start_initialization:
    82                           	callstack 0
    83  006C6A                     __initialization:
    84                           	callstack 0
    85                           
    86                           ; Initialize objects allocated to COMRAM (4 bytes)
    87                           ; load TBLPTR registers with __pidataCOMRAM
    88  006C6A  0E50               	movlw	low __pidataCOMRAM
    89  006C6C  6EF6               	movwf	tblptrl,c
    90  006C6E  0E6C               	movlw	high __pidataCOMRAM
    91  006C70  6EF7               	movwf	tblptrh,c
    92  006C72  0E00               	movlw	low (__pidataCOMRAM shr (0+16))
    93  006C74  6EF8               	movwf	tblptru,c
    94  006C76  EE00  F04B         	lfsr	0,__pdataCOMRAM
    95  006C7A  EE10 F004          	lfsr	1,4
    96  006C7E                     copy_data0:
    97  006C7E  0009               	tblrd		*+
    98  006C80  CFF5 FFEE          	movff	tablat,postinc0
    99  006C84  50E5               	movf	postdec1,w,c
   100  006C86  50E1               	movf	fsr1l,w,c
   101  006C88  E1FA               	bnz	copy_data0
   102                           
   103                           ; Clear objects allocated to COMRAM (14 bytes)
   104  006C8A  EE00  F03D         	lfsr	0,__pbssCOMRAM
   105  006C8E  0E0E               	movlw	14
   106  006C90                     clear_0:
   107  006C90  6AEE               	clrf	postinc0,c
   108  006C92  06E8               	decf	wreg,f,c
   109  006C94  E1FD               	bnz	clear_0
   110  006C96                     end_of_initialization:
   111                           	callstack 0
   112  006C96                     __end_of__initialization:
   113                           	callstack 0
   114  006C96  0100               	movlb	0
   115  006C98  EF4E  F036         	goto	_main	;jump to C main() function
   116                           
   117                           	psect	bssCOMRAM
   118  00003D                     __pbssCOMRAM:
   119                           	callstack 0
   120  00003D                     _buffer1:
   121                           	callstack 0
   122  00003D                     	ds	8
   123  000045                     _s:
   124                           	callstack 0
   125  000045                     	ds	2
   126  000047                     _b:
   127                           	callstack 0
   128  000047                     	ds	2
   129  000049                     _a:
   130                           	callstack 0
   131  000049                     	ds	2
   132                           
   133                           	psect	dataCOMRAM
   134  00004B                     __pdataCOMRAM:
   135                           	callstack 0
   136  00004B                     _distancia:
   137                           	callstack 0
   138  00004B                     	ds	4
   139                           
   140                           	psect	cstackCOMRAM
   141  000001                     __pcstackCOMRAM:
   142                           	callstack 0
   143  000001                     ?___fladd:
   144                           	callstack 0
   145  000001                     ?___xxtofl:
   146                           	callstack 0
   147  000001                     ___fladd@b:
   148                           	callstack 0
   149  000001                     ___xxtofl@val:
   150                           	callstack 0
   151                           
   152                           ; 4 bytes @ 0x0
   153  000001                     	ds	4
   154  000005                     ??___xxtofl:
   155  000005                     ___fladd@a:
   156                           	callstack 0
   157                           
   158                           ; 4 bytes @ 0x4
   159  000005                     	ds	4
   160  000009                     ??___fladd:
   161  000009                     ___xxtofl@sign:
   162                           	callstack 0
   163                           
   164                           ; 1 bytes @ 0x8
   165  000009                     	ds	1
   166  00000A                     ___xxtofl@exp:
   167                           	callstack 0
   168                           
   169                           ; 1 bytes @ 0x9
   170  00000A                     	ds	1
   171  00000B                     ___xxtofl@arg:
   172                           	callstack 0
   173                           
   174                           ; 4 bytes @ 0xA
   175  00000B                     	ds	2
   176  00000D                     ___fladd@signs:
   177                           	callstack 0
   178                           
   179                           ; 1 bytes @ 0xC
   180  00000D                     	ds	1
   181  00000E                     ___fladd@aexp:
   182                           	callstack 0
   183                           
   184                           ; 1 bytes @ 0xD
   185  00000E                     	ds	1
   186  00000F                     ?___fldiv:
   187                           	callstack 0
   188  00000F                     ___fladd@bexp:
   189                           	callstack 0
   190  00000F                     ___fldiv@b:
   191                           	callstack 0
   192                           
   193                           ; 4 bytes @ 0xE
   194  00000F                     	ds	1
   195  000010                     ___fladd@grs:
   196                           	callstack 0
   197                           
   198                           ; 1 bytes @ 0xF
   199  000010                     	ds	3
   200  000013                     ___fldiv@a:
   201                           	callstack 0
   202                           
   203                           ; 4 bytes @ 0x12
   204  000013                     	ds	4
   205  000017                     ??___fldiv:
   206                           
   207                           ; 1 bytes @ 0x16
   208  000017                     	ds	4
   209  00001B                     ___fldiv@rem:
   210                           	callstack 0
   211                           
   212                           ; 4 bytes @ 0x1A
   213  00001B                     	ds	4
   214  00001F                     ___fldiv@sign:
   215                           	callstack 0
   216                           
   217                           ; 1 bytes @ 0x1E
   218  00001F                     	ds	1
   219  000020                     ___fldiv@new_exp:
   220                           	callstack 0
   221                           
   222                           ; 2 bytes @ 0x1F
   223  000020                     	ds	2
   224  000022                     ___fldiv@grs:
   225                           	callstack 0
   226                           
   227                           ; 4 bytes @ 0x21
   228  000022                     	ds	4
   229  000026                     ___fldiv@bexp:
   230                           	callstack 0
   231                           
   232                           ; 1 bytes @ 0x25
   233  000026                     	ds	1
   234  000027                     ___fldiv@aexp:
   235                           	callstack 0
   236                           
   237                           ; 1 bytes @ 0x26
   238  000027                     	ds	1
   239  000028                     ?___flsub:
   240                           	callstack 0
   241  000028                     ?___fltol:
   242                           	callstack 0
   243  000028                     ___fltol@f1:
   244                           	callstack 0
   245  000028                     ___flsub@b:
   246                           	callstack 0
   247                           
   248                           ; 4 bytes @ 0x27
   249  000028                     	ds	4
   250  00002C                     ??___fltol:
   251  00002C                     ___flsub@a:
   252                           	callstack 0
   253                           
   254                           ; 4 bytes @ 0x2B
   255  00002C                     	ds	4
   256  000030                     ___fltol@sign1:
   257                           	callstack 0
   258                           
   259                           ; 1 bytes @ 0x2F
   260  000030                     	ds	1
   261  000031                     ___fltol@exp1:
   262                           	callstack 0
   263                           
   264                           ; 1 bytes @ 0x30
   265  000031                     	ds	1
   266  000032                     tocar_nota@duracion:
   267                           	callstack 0
   268  000032                     silencio@duracion:
   269                           	callstack 0
   270                           
   271                           ; 2 bytes @ 0x31
   272  000032                     	ds	2
   273  000034                     tocar_nota@tfrec:
   274                           	callstack 0
   275  000034                     silencio@tfrec:
   276                           	callstack 0
   277                           
   278                           ; 4 bytes @ 0x33
   279  000034                     	ds	4
   280  000038                     ??_tocar_nota:
   281  000038                     ??_silencio:
   282                           
   283                           ; 1 bytes @ 0x37
   284  000038                     	ds	1
   285  000039                     _tocar_nota$874:
   286                           	callstack 0
   287  000039                     _silencio$875:
   288                           	callstack 0
   289                           
   290                           ; 4 bytes @ 0x38
   291  000039                     	ds	4
   292  00003D                     
   293                           ; 1 bytes @ 0x3C
   294 ;;
   295 ;;Main: autosize = 0, tempsize = 0, incstack = 0, save=0
   296 ;;
   297 ;; *************** function _main *****************
   298 ;; Defined at:
   299 ;;		line 142 in file "main.c"
   300 ;; Parameters:    Size  Location     Type
   301 ;;		None
   302 ;; Auto vars:     Size  Location     Type
   303 ;;		None
   304 ;; Return value:  Size  Location     Type
   305 ;;                  1    wreg      void 
   306 ;; Registers used:
   307 ;;		wreg, status,2, status,0, cstack
   308 ;; Tracked objects:
   309 ;;		On entry : 0/0
   310 ;;		On exit  : 0/0
   311 ;;		Unchanged: 0/0
   312 ;; Data sizes:     COMRAM   BANK0   BANK1   BANK2   BANK3   BANK4   BANK5   BANK6   BANK7
   313 ;;      Params:         0       0       0       0       0       0       0       0       0
   314 ;;      Locals:         0       0       0       0       0       0       0       0       0
   315 ;;      Temps:          0       0       0       0       0       0       0       0       0
   316 ;;      Totals:         0       0       0       0       0       0       0       0       0
   317 ;;Total ram usage:        0 bytes
   318 ;; Hardware stack levels required when called: 4
   319 ;; This function calls:
   320 ;;		_cancion1
   321 ;;		_confT0
   322 ;; This function is called by:
   323 ;;		Startup code after reset
   324 ;; This function uses a non-reentrant model
   325 ;;
   326                           
   327                           	psect	text0
   328  006C9C                     __ptext0:
   329                           	callstack 0
   330  006C9C                     _main:
   331                           	callstack 27
   332  006C9C                     
   333                           ;main.c: 144:     ADCON1 = 15;
   334  006C9C  0E0F               	movlw	15
   335  006C9E  6EC1               	movwf	193,c	;volatile
   336                           
   337                           ;main.c: 146:     TRISA = 0b00010000;
   338  006CA0  0E10               	movlw	16
   339  006CA2  6E92               	movwf	146,c	;volatile
   340  006CA4                     
   341                           ;main.c: 147:      TRISB = 0b11111111;
   342  006CA4  6893               	setf	147,c	;volatile
   343  006CA6                     
   344                           ;main.c: 148:     confT0();
   345  006CA6  EC2A  F036         	call	_confT0	;wreg free
   346  006CAA                     l1693:
   347                           
   348                           ;main.c: 152:      if (PORTBbits.RB0 == 1) {
   349  006CAA  A081               	btfss	129,0,c	;volatile
   350  006CAC  EF5A  F036         	goto	u1731
   351  006CB0  EF5C  F036         	goto	u1730
   352  006CB4                     u1731:
   353  006CB4  EF67  F036         	goto	l62
   354  006CB8                     u1730:
   355  006CB8                     l63:
   356  006CB8  B081               	btfsc	129,0,c	;volatile
   357  006CBA  EF61  F036         	goto	u1741
   358  006CBE  EF63  F036         	goto	u1740
   359  006CC2                     u1741:
   360  006CC2  EF5C  F036         	goto	l63
   361  006CC6                     u1740:
   362  006CC6                     
   363                           ;main.c: 154:                        cancion1();
   364  006CC6  EC89  F03D         	call	_cancion1	;wreg free
   365                           
   366                           ;main.c: 156:      }
   367  006CCA  EF55  F036         	goto	l1693
   368  006CCE                     l62:
   369                           
   370                           ;main.c: 159:          PORTAbits.RA0 = 0;
   371  006CCE  9080               	bcf	128,0,c	;volatile
   372  006CD0  EF55  F036         	goto	l1693
   373  006CD4  EF00  F000         	goto	start
   374  006CD8                     __end_of_main:
   375                           	callstack 0
   376                           
   377 ;; *************** function _confT0 *****************
   378 ;; Defined at:
   379 ;;		line 59 in file "main.c"
   380 ;; Parameters:    Size  Location     Type
   381 ;;		None
   382 ;; Auto vars:     Size  Location     Type
   383 ;;		None
   384 ;; Return value:  Size  Location     Type
   385 ;;                  1    wreg      void 
   386 ;; Registers used:
   387 ;;		wreg, status,2
   388 ;; Tracked objects:
   389 ;;		On entry : 0/0
   390 ;;		On exit  : 0/0
   391 ;;		Unchanged: 0/0
   392 ;; Data sizes:     COMRAM   BANK0   BANK1   BANK2   BANK3   BANK4   BANK5   BANK6   BANK7
   393 ;;      Params:         0       0       0       0       0       0       0       0       0
   394 ;;      Locals:         0       0       0       0       0       0       0       0       0
   395 ;;      Temps:          0       0       0       0       0       0       0       0       0
   396 ;;      Totals:         0       0       0       0       0       0       0       0       0
   397 ;;Total ram usage:        0 bytes
   398 ;; Hardware stack levels used: 1
   399 ;; This function calls:
   400 ;;		Nothing
   401 ;; This function is called by:
   402 ;;		_main
   403 ;; This function uses a non-reentrant model
   404 ;;
   405                           
   406                           	psect	text1
   407  006C54                     __ptext1:
   408                           	callstack 0
   409  006C54                     _confT0:
   410                           	callstack 30
   411  006C54                     
   412                           ;main.c: 61:     T0CONbits.TMR0ON = 1;
   413  006C54  8ED5               	bsf	213,7,c	;volatile
   414                           
   415                           ;main.c: 62:       T0CONbits.T08BIT = 1;
   416  006C56  8CD5               	bsf	213,6,c	;volatile
   417                           
   418                           ;main.c: 63:       T0CONbits.T0CS = 0;
   419  006C58  9AD5               	bcf	213,5,c	;volatile
   420                           
   421                           ;main.c: 64:       T0CONbits.T0SE = 0;
   422  006C5A  98D5               	bcf	213,4,c	;volatile
   423                           
   424                           ;main.c: 65:       T0CONbits.PSA = 0;
   425  006C5C  96D5               	bcf	213,3,c	;volatile
   426  006C5E                     
   427                           ;main.c: 66:       T0CONbits.T0PS = 0b110;
   428  006C5E  50D5               	movf	213,w,c	;volatile
   429  006C60  0BF8               	andlw	-8
   430  006C62  0906               	iorlw	6
   431  006C64  6ED5               	movwf	213,c	;volatile
   432  006C66                     
   433                           ;main.c: 68:       INTCONbits.TMR0IE = 1;
   434  006C66  8AF2               	bsf	242,5,c	;volatile
   435  006C68  0012               	return		;funcret
   436  006C6A                     __end_of_confT0:
   437                           	callstack 0
   438                           
   439 ;; *************** function _cancion1 *****************
   440 ;; Defined at:
   441 ;;		line 74 in file "main.c"
   442 ;; Parameters:    Size  Location     Type
   443 ;;		None
   444 ;; Auto vars:     Size  Location     Type
   445 ;;		None
   446 ;; Return value:  Size  Location     Type
   447 ;;                  1    wreg      void 
   448 ;; Registers used:
   449 ;;		wreg, status,2, status,0, cstack
   450 ;; Tracked objects:
   451 ;;		On entry : 0/0
   452 ;;		On exit  : 0/0
   453 ;;		Unchanged: 0/0
   454 ;; Data sizes:     COMRAM   BANK0   BANK1   BANK2   BANK3   BANK4   BANK5   BANK6   BANK7
   455 ;;      Params:         0       0       0       0       0       0       0       0       0
   456 ;;      Locals:         0       0       0       0       0       0       0       0       0
   457 ;;      Temps:          0       0       0       0       0       0       0       0       0
   458 ;;      Totals:         0       0       0       0       0       0       0       0       0
   459 ;;Total ram usage:        0 bytes
   460 ;; Hardware stack levels used: 1
   461 ;; Hardware stack levels required when called: 3
   462 ;; This function calls:
   463 ;;		_silencio
   464 ;;		_tocar_nota
   465 ;; This function is called by:
   466 ;;		_main
   467 ;; This function uses a non-reentrant model
   468 ;;
   469                           
   470                           	psect	text2
   471  007B12                     __ptext2:
   472                           	callstack 0
   473  007B12                     _cancion1:
   474                           	callstack 27
   475  007B12                     
   476                           ;main.c: 76:      tocar_nota(500,3.034);
   477  007B12  0E01               	movlw	1
   478  007B14  6E33               	movwf	(tocar_nota@duracion+1)^0,c
   479  007B16  0EF4               	movlw	244
   480  007B18  6E32               	movwf	tocar_nota@duracion^0,c
   481  007B1A  0E0E               	movlw	14
   482  007B1C  6E34               	movwf	tocar_nota@tfrec^0,c
   483  007B1E  0E2D               	movlw	45
   484  007B20  6E35               	movwf	(tocar_nota@tfrec+1)^0,c
   485  007B22  0E42               	movlw	66
   486  007B24  6E36               	movwf	(tocar_nota@tfrec+2)^0,c
   487  007B26  0E40               	movlw	64
   488  007B28  6E37               	movwf	(tocar_nota@tfrec+3)^0,c
   489  007B2A  ECCA  F037         	call	_tocar_nota	;wreg free
   490                           
   491                           ;main.c: 77:       tocar_nota(500,3.034);
   492  007B2E  0E01               	movlw	1
   493  007B30  6E33               	movwf	(tocar_nota@duracion+1)^0,c
   494  007B32  0EF4               	movlw	244
   495  007B34  6E32               	movwf	tocar_nota@duracion^0,c
   496  007B36  0E0E               	movlw	14
   497  007B38  6E34               	movwf	tocar_nota@tfrec^0,c
   498  007B3A  0E2D               	movlw	45
   499  007B3C  6E35               	movwf	(tocar_nota@tfrec+1)^0,c
   500  007B3E  0E42               	movlw	66
   501  007B40  6E36               	movwf	(tocar_nota@tfrec+2)^0,c
   502  007B42  0E40               	movlw	64
   503  007B44  6E37               	movwf	(tocar_nota@tfrec+3)^0,c
   504  007B46  ECCA  F037         	call	_tocar_nota	;wreg free
   505                           
   506                           ;main.c: 78:       tocar_nota(500,3.034);
   507  007B4A  0E01               	movlw	1
   508  007B4C  6E33               	movwf	(tocar_nota@duracion+1)^0,c
   509  007B4E  0EF4               	movlw	244
   510  007B50  6E32               	movwf	tocar_nota@duracion^0,c
   511  007B52  0E0E               	movlw	14
   512  007B54  6E34               	movwf	tocar_nota@tfrec^0,c
   513  007B56  0E2D               	movlw	45
   514  007B58  6E35               	movwf	(tocar_nota@tfrec+1)^0,c
   515  007B5A  0E42               	movlw	66
   516  007B5C  6E36               	movwf	(tocar_nota@tfrec+2)^0,c
   517  007B5E  0E40               	movlw	64
   518  007B60  6E37               	movwf	(tocar_nota@tfrec+3)^0,c
   519  007B62  ECCA  F037         	call	_tocar_nota	;wreg free
   520                           
   521                           ;main.c: 80:        tocar_nota(375,3.82);
   522  007B66  0E01               	movlw	1
   523  007B68  6E33               	movwf	(tocar_nota@duracion+1)^0,c
   524  007B6A  0E77               	movlw	119
   525  007B6C  6E32               	movwf	tocar_nota@duracion^0,c
   526  007B6E  0EE1               	movlw	225
   527  007B70  6E34               	movwf	tocar_nota@tfrec^0,c
   528  007B72  0E7A               	movlw	122
   529  007B74  6E35               	movwf	(tocar_nota@tfrec+1)^0,c
   530  007B76  0E74               	movlw	116
   531  007B78  6E36               	movwf	(tocar_nota@tfrec+2)^0,c
   532  007B7A  0E40               	movlw	64
   533  007B7C  6E37               	movwf	(tocar_nota@tfrec+3)^0,c
   534  007B7E  ECCA  F037         	call	_tocar_nota	;wreg free
   535                           
   536                           ;main.c: 81:         tocar_nota(125,2.551);
   537  007B82  0E00               	movlw	0
   538  007B84  6E33               	movwf	(tocar_nota@duracion+1)^0,c
   539  007B86  0E7D               	movlw	125
   540  007B88  6E32               	movwf	tocar_nota@duracion^0,c
   541  007B8A  0E96               	movlw	150
   542  007B8C  6E34               	movwf	tocar_nota@tfrec^0,c
   543  007B8E  0E43               	movlw	67
   544  007B90  6E35               	movwf	(tocar_nota@tfrec+1)^0,c
   545  007B92  0E23               	movlw	35
   546  007B94  6E36               	movwf	(tocar_nota@tfrec+2)^0,c
   547  007B96  0E40               	movlw	64
   548  007B98  6E37               	movwf	(tocar_nota@tfrec+3)^0,c
   549  007B9A  ECCA  F037         	call	_tocar_nota	;wreg free
   550                           
   551                           ;main.c: 83:         tocar_nota(500,3.034);
   552  007B9E  0E01               	movlw	1
   553  007BA0  6E33               	movwf	(tocar_nota@duracion+1)^0,c
   554  007BA2  0EF4               	movlw	244
   555  007BA4  6E32               	movwf	tocar_nota@duracion^0,c
   556  007BA6  0E0E               	movlw	14
   557  007BA8  6E34               	movwf	tocar_nota@tfrec^0,c
   558  007BAA  0E2D               	movlw	45
   559  007BAC  6E35               	movwf	(tocar_nota@tfrec+1)^0,c
   560  007BAE  0E42               	movlw	66
   561  007BB0  6E36               	movwf	(tocar_nota@tfrec+2)^0,c
   562  007BB2  0E40               	movlw	64
   563  007BB4  6E37               	movwf	(tocar_nota@tfrec+3)^0,c
   564  007BB6  ECCA  F037         	call	_tocar_nota	;wreg free
   565                           
   566                           ;main.c: 85:        tocar_nota(375,3.82);
   567  007BBA  0E01               	movlw	1
   568  007BBC  6E33               	movwf	(tocar_nota@duracion+1)^0,c
   569  007BBE  0E77               	movlw	119
   570  007BC0  6E32               	movwf	tocar_nota@duracion^0,c
   571  007BC2  0EE1               	movlw	225
   572  007BC4  6E34               	movwf	tocar_nota@tfrec^0,c
   573  007BC6  0E7A               	movlw	122
   574  007BC8  6E35               	movwf	(tocar_nota@tfrec+1)^0,c
   575  007BCA  0E74               	movlw	116
   576  007BCC  6E36               	movwf	(tocar_nota@tfrec+2)^0,c
   577  007BCE  0E40               	movlw	64
   578  007BD0  6E37               	movwf	(tocar_nota@tfrec+3)^0,c
   579  007BD2  ECCA  F037         	call	_tocar_nota	;wreg free
   580                           
   581                           ;main.c: 86:         tocar_nota(125,2.551);
   582  007BD6  0E00               	movlw	0
   583  007BD8  6E33               	movwf	(tocar_nota@duracion+1)^0,c
   584  007BDA  0E7D               	movlw	125
   585  007BDC  6E32               	movwf	tocar_nota@duracion^0,c
   586  007BDE  0E96               	movlw	150
   587  007BE0  6E34               	movwf	tocar_nota@tfrec^0,c
   588  007BE2  0E43               	movlw	67
   589  007BE4  6E35               	movwf	(tocar_nota@tfrec+1)^0,c
   590  007BE6  0E23               	movlw	35
   591  007BE8  6E36               	movwf	(tocar_nota@tfrec+2)^0,c
   592  007BEA  0E40               	movlw	64
   593  007BEC  6E37               	movwf	(tocar_nota@tfrec+3)^0,c
   594  007BEE  ECCA  F037         	call	_tocar_nota	;wreg free
   595                           
   596                           ;main.c: 88:         tocar_nota(1000,3.034);
   597  007BF2  0E03               	movlw	3
   598  007BF4  6E33               	movwf	(tocar_nota@duracion+1)^0,c
   599  007BF6  0EE8               	movlw	232
   600  007BF8  6E32               	movwf	tocar_nota@duracion^0,c
   601  007BFA  0E0E               	movlw	14
   602  007BFC  6E34               	movwf	tocar_nota@tfrec^0,c
   603  007BFE  0E2D               	movlw	45
   604  007C00  6E35               	movwf	(tocar_nota@tfrec+1)^0,c
   605  007C02  0E42               	movlw	66
   606  007C04  6E36               	movwf	(tocar_nota@tfrec+2)^0,c
   607  007C06  0E40               	movlw	64
   608  007C08  6E37               	movwf	(tocar_nota@tfrec+3)^0,c
   609  007C0A  ECCA  F037         	call	_tocar_nota	;wreg free
   610                           
   611                           ;main.c: 90:         tocar_nota(500,2.028);
   612  007C0E  0E01               	movlw	1
   613  007C10  6E33               	movwf	(tocar_nota@duracion+1)^0,c
   614  007C12  0EF4               	movlw	244
   615  007C14  6E32               	movwf	tocar_nota@duracion^0,c
   616  007C16  0EC1               	movlw	193
   617  007C18  6E34               	movwf	tocar_nota@tfrec^0,c
   618  007C1A  0ECA               	movlw	202
   619  007C1C  6E35               	movwf	(tocar_nota@tfrec+1)^0,c
   620  007C1E  0E01               	movlw	1
   621  007C20  6E36               	movwf	(tocar_nota@tfrec+2)^0,c
   622  007C22  0E40               	movlw	64
   623  007C24  6E37               	movwf	(tocar_nota@tfrec+3)^0,c
   624  007C26  ECCA  F037         	call	_tocar_nota	;wreg free
   625                           
   626                           ;main.c: 91:         tocar_nota(500,2.028);
   627  007C2A  0E01               	movlw	1
   628  007C2C  6E33               	movwf	(tocar_nota@duracion+1)^0,c
   629  007C2E  0EF4               	movlw	244
   630  007C30  6E32               	movwf	tocar_nota@duracion^0,c
   631  007C32  0EC1               	movlw	193
   632  007C34  6E34               	movwf	tocar_nota@tfrec^0,c
   633  007C36  0ECA               	movlw	202
   634  007C38  6E35               	movwf	(tocar_nota@tfrec+1)^0,c
   635  007C3A  0E01               	movlw	1
   636  007C3C  6E36               	movwf	(tocar_nota@tfrec+2)^0,c
   637  007C3E  0E40               	movlw	64
   638  007C40  6E37               	movwf	(tocar_nota@tfrec+3)^0,c
   639  007C42  ECCA  F037         	call	_tocar_nota	;wreg free
   640                           
   641                           ;main.c: 92:         tocar_nota(500,2.028);
   642  007C46  0E01               	movlw	1
   643  007C48  6E33               	movwf	(tocar_nota@duracion+1)^0,c
   644  007C4A  0EF4               	movlw	244
   645  007C4C  6E32               	movwf	tocar_nota@duracion^0,c
   646  007C4E  0EC1               	movlw	193
   647  007C50  6E34               	movwf	tocar_nota@tfrec^0,c
   648  007C52  0ECA               	movlw	202
   649  007C54  6E35               	movwf	(tocar_nota@tfrec+1)^0,c
   650  007C56  0E01               	movlw	1
   651  007C58  6E36               	movwf	(tocar_nota@tfrec+2)^0,c
   652  007C5A  0E40               	movlw	64
   653  007C5C  6E37               	movwf	(tocar_nota@tfrec+3)^0,c
   654  007C5E  ECCA  F037         	call	_tocar_nota	;wreg free
   655                           
   656                           ;main.c: 94:         tocar_nota(375,1.911);
   657  007C62  0E01               	movlw	1
   658  007C64  6E33               	movwf	(tocar_nota@duracion+1)^0,c
   659  007C66  0E77               	movlw	119
   660  007C68  6E32               	movwf	tocar_nota@duracion^0,c
   661  007C6A  0EA6               	movlw	166
   662  007C6C  6E34               	movwf	tocar_nota@tfrec^0,c
   663  007C6E  0E9B               	movlw	155
   664  007C70  6E35               	movwf	(tocar_nota@tfrec+1)^0,c
   665  007C72  0EF4               	movlw	244
   666  007C74  6E36               	movwf	(tocar_nota@tfrec+2)^0,c
   667  007C76  0E3F               	movlw	63
   668  007C78  6E37               	movwf	(tocar_nota@tfrec+3)^0,c
   669  007C7A  ECCA  F037         	call	_tocar_nota	;wreg free
   670                           
   671                           ;main.c: 95:         tocar_nota(125,2.551);
   672  007C7E  0E00               	movlw	0
   673  007C80  6E33               	movwf	(tocar_nota@duracion+1)^0,c
   674  007C82  0E7D               	movlw	125
   675  007C84  6E32               	movwf	tocar_nota@duracion^0,c
   676  007C86  0E96               	movlw	150
   677  007C88  6E34               	movwf	tocar_nota@tfrec^0,c
   678  007C8A  0E43               	movlw	67
   679  007C8C  6E35               	movwf	(tocar_nota@tfrec+1)^0,c
   680  007C8E  0E23               	movlw	35
   681  007C90  6E36               	movwf	(tocar_nota@tfrec+2)^0,c
   682  007C92  0E40               	movlw	64
   683  007C94  6E37               	movwf	(tocar_nota@tfrec+3)^0,c
   684  007C96  ECCA  F037         	call	_tocar_nota	;wreg free
   685                           
   686                           ;main.c: 97:         tocar_nota(500,3.61);
   687  007C9A  0E01               	movlw	1
   688  007C9C  6E33               	movwf	(tocar_nota@duracion+1)^0,c
   689  007C9E  0EF4               	movlw	244
   690  007CA0  6E32               	movwf	tocar_nota@duracion^0,c
   691  007CA2  0E3D               	movlw	61
   692  007CA4  6E34               	movwf	tocar_nota@tfrec^0,c
   693  007CA6  0E0A               	movlw	10
   694  007CA8  6E35               	movwf	(tocar_nota@tfrec+1)^0,c
   695  007CAA  0E67               	movlw	103
   696  007CAC  6E36               	movwf	(tocar_nota@tfrec+2)^0,c
   697  007CAE  0E40               	movlw	64
   698  007CB0  6E37               	movwf	(tocar_nota@tfrec+3)^0,c
   699  007CB2  ECCA  F037         	call	_tocar_nota	;wreg free
   700                           
   701                           ;main.c: 99:          tocar_nota(375,3.82);
   702  007CB6  0E01               	movlw	1
   703  007CB8  6E33               	movwf	(tocar_nota@duracion+1)^0,c
   704  007CBA  0E77               	movlw	119
   705  007CBC  6E32               	movwf	tocar_nota@duracion^0,c
   706  007CBE  0EE1               	movlw	225
   707  007CC0  6E34               	movwf	tocar_nota@tfrec^0,c
   708  007CC2  0E7A               	movlw	122
   709  007CC4  6E35               	movwf	(tocar_nota@tfrec+1)^0,c
   710  007CC6  0E74               	movlw	116
   711  007CC8  6E36               	movwf	(tocar_nota@tfrec+2)^0,c
   712  007CCA  0E40               	movlw	64
   713  007CCC  6E37               	movwf	(tocar_nota@tfrec+3)^0,c
   714  007CCE  ECCA  F037         	call	_tocar_nota	;wreg free
   715                           
   716                           ;main.c: 100:         tocar_nota(125,2.551);
   717  007CD2  0E00               	movlw	0
   718  007CD4  6E33               	movwf	(tocar_nota@duracion+1)^0,c
   719  007CD6  0E7D               	movlw	125
   720  007CD8  6E32               	movwf	tocar_nota@duracion^0,c
   721  007CDA  0E96               	movlw	150
   722  007CDC  6E34               	movwf	tocar_nota@tfrec^0,c
   723  007CDE  0E43               	movlw	67
   724  007CE0  6E35               	movwf	(tocar_nota@tfrec+1)^0,c
   725  007CE2  0E23               	movlw	35
   726  007CE4  6E36               	movwf	(tocar_nota@tfrec+2)^0,c
   727  007CE6  0E40               	movlw	64
   728  007CE8  6E37               	movwf	(tocar_nota@tfrec+3)^0,c
   729  007CEA  ECCA  F037         	call	_tocar_nota	;wreg free
   730                           
   731                           ;main.c: 102:         tocar_nota(1000,3.034);
   732  007CEE  0E03               	movlw	3
   733  007CF0  6E33               	movwf	(tocar_nota@duracion+1)^0,c
   734  007CF2  0EE8               	movlw	232
   735  007CF4  6E32               	movwf	tocar_nota@duracion^0,c
   736  007CF6  0E0E               	movlw	14
   737  007CF8  6E34               	movwf	tocar_nota@tfrec^0,c
   738  007CFA  0E2D               	movlw	45
   739  007CFC  6E35               	movwf	(tocar_nota@tfrec+1)^0,c
   740  007CFE  0E42               	movlw	66
   741  007D00  6E36               	movwf	(tocar_nota@tfrec+2)^0,c
   742  007D02  0E40               	movlw	64
   743  007D04  6E37               	movwf	(tocar_nota@tfrec+3)^0,c
   744  007D06  ECCA  F037         	call	_tocar_nota	;wreg free
   745                           
   746                           ;main.c: 104:         tocar_nota(500,1.517);
   747  007D0A  0E01               	movlw	1
   748  007D0C  6E33               	movwf	(tocar_nota@duracion+1)^0,c
   749  007D0E  0EF4               	movlw	244
   750  007D10  6E32               	movwf	tocar_nota@duracion^0,c
   751  007D12  0E0E               	movlw	14
   752  007D14  6E34               	movwf	tocar_nota@tfrec^0,c
   753  007D16  0E2D               	movlw	45
   754  007D18  6E35               	movwf	(tocar_nota@tfrec+1)^0,c
   755  007D1A  0EC2               	movlw	194
   756  007D1C  6E36               	movwf	(tocar_nota@tfrec+2)^0,c
   757  007D1E  0E3F               	movlw	63
   758  007D20  6E37               	movwf	(tocar_nota@tfrec+3)^0,c
   759  007D22  ECCA  F037         	call	_tocar_nota	;wreg free
   760                           
   761                           ;main.c: 105:         tocar_nota(375,3.034);
   762  007D26  0E01               	movlw	1
   763  007D28  6E33               	movwf	(tocar_nota@duracion+1)^0,c
   764  007D2A  0E77               	movlw	119
   765  007D2C  6E32               	movwf	tocar_nota@duracion^0,c
   766  007D2E  0E0E               	movlw	14
   767  007D30  6E34               	movwf	tocar_nota@tfrec^0,c
   768  007D32  0E2D               	movlw	45
   769  007D34  6E35               	movwf	(tocar_nota@tfrec+1)^0,c
   770  007D36  0E42               	movlw	66
   771  007D38  6E36               	movwf	(tocar_nota@tfrec+2)^0,c
   772  007D3A  0E40               	movlw	64
   773  007D3C  6E37               	movwf	(tocar_nota@tfrec+3)^0,c
   774  007D3E  ECCA  F037         	call	_tocar_nota	;wreg free
   775                           
   776                           ;main.c: 106:         tocar_nota(125,3.034);
   777  007D42  0E00               	movlw	0
   778  007D44  6E33               	movwf	(tocar_nota@duracion+1)^0,c
   779  007D46  0E7D               	movlw	125
   780  007D48  6E32               	movwf	tocar_nota@duracion^0,c
   781  007D4A  0E0E               	movlw	14
   782  007D4C  6E34               	movwf	tocar_nota@tfrec^0,c
   783  007D4E  0E2D               	movlw	45
   784  007D50  6E35               	movwf	(tocar_nota@tfrec+1)^0,c
   785  007D52  0E42               	movlw	66
   786  007D54  6E36               	movwf	(tocar_nota@tfrec+2)^0,c
   787  007D56  0E40               	movlw	64
   788  007D58  6E37               	movwf	(tocar_nota@tfrec+3)^0,c
   789  007D5A  ECCA  F037         	call	_tocar_nota	;wreg free
   790                           
   791                           ;main.c: 107:         tocar_nota(500,1.517);
   792  007D5E  0E01               	movlw	1
   793  007D60  6E33               	movwf	(tocar_nota@duracion+1)^0,c
   794  007D62  0EF4               	movlw	244
   795  007D64  6E32               	movwf	tocar_nota@duracion^0,c
   796  007D66  0E0E               	movlw	14
   797  007D68  6E34               	movwf	tocar_nota@tfrec^0,c
   798  007D6A  0E2D               	movlw	45
   799  007D6C  6E35               	movwf	(tocar_nota@tfrec+1)^0,c
   800  007D6E  0EC2               	movlw	194
   801  007D70  6E36               	movwf	(tocar_nota@tfrec+2)^0,c
   802  007D72  0E3F               	movlw	63
   803  007D74  6E37               	movwf	(tocar_nota@tfrec+3)^0,c
   804  007D76  ECCA  F037         	call	_tocar_nota	;wreg free
   805                           
   806                           ;main.c: 109:          tocar_nota(375,1.607);
   807  007D7A  0E01               	movlw	1
   808  007D7C  6E33               	movwf	(tocar_nota@duracion+1)^0,c
   809  007D7E  0E77               	movlw	119
   810  007D80  6E32               	movwf	tocar_nota@duracion^0,c
   811  007D82  0E2D               	movlw	45
   812  007D84  6E34               	movwf	tocar_nota@tfrec^0,c
   813  007D86  0EB2               	movlw	178
   814  007D88  6E35               	movwf	(tocar_nota@tfrec+1)^0,c
   815  007D8A  0ECD               	movlw	205
   816  007D8C  6E36               	movwf	(tocar_nota@tfrec+2)^0,c
   817  007D8E  0E3F               	movlw	63
   818  007D90  6E37               	movwf	(tocar_nota@tfrec+3)^0,c
   819  007D92  ECCA  F037         	call	_tocar_nota	;wreg free
   820                           
   821                           ;main.c: 110:         tocar_nota(125,1.703);
   822  007D96  0E00               	movlw	0
   823  007D98  6E33               	movwf	(tocar_nota@duracion+1)^0,c
   824  007D9A  0E7D               	movlw	125
   825  007D9C  6E32               	movwf	tocar_nota@duracion^0,c
   826  007D9E  0EE7               	movlw	231
   827  007DA0  6E34               	movwf	tocar_nota@tfrec^0,c
   828  007DA2  0EFB               	movlw	251
   829  007DA4  6E35               	movwf	(tocar_nota@tfrec+1)^0,c
   830  007DA6  0ED9               	movlw	217
   831  007DA8  6E36               	movwf	(tocar_nota@tfrec+2)^0,c
   832  007DAA  0E3F               	movlw	63
   833  007DAC  6E37               	movwf	(tocar_nota@tfrec+3)^0,c
   834  007DAE  ECCA  F037         	call	_tocar_nota	;wreg free
   835                           
   836                           ;main.c: 112:          tocar_nota(125,1.804);
   837  007DB2  0E00               	movlw	0
   838  007DB4  6E33               	movwf	(tocar_nota@duracion+1)^0,c
   839  007DB6  0E7D               	movlw	125
   840  007DB8  6E32               	movwf	tocar_nota@duracion^0,c
   841  007DBA  0E79               	movlw	121
   842  007DBC  6E34               	movwf	tocar_nota@tfrec^0,c
   843  007DBE  0EE9               	movlw	233
   844  007DC0  6E35               	movwf	(tocar_nota@tfrec+1)^0,c
   845  007DC2  0EE6               	movlw	230
   846  007DC4  6E36               	movwf	(tocar_nota@tfrec+2)^0,c
   847  007DC6  0E3F               	movlw	63
   848  007DC8  6E37               	movwf	(tocar_nota@tfrec+3)^0,c
   849  007DCA  ECCA  F037         	call	_tocar_nota	;wreg free
   850                           
   851                           ;main.c: 113:           tocar_nota(125,1.911);
   852  007DCE  0E00               	movlw	0
   853  007DD0  6E33               	movwf	(tocar_nota@duracion+1)^0,c
   854  007DD2  0E7D               	movlw	125
   855  007DD4  6E32               	movwf	tocar_nota@duracion^0,c
   856  007DD6  0EA6               	movlw	166
   857  007DD8  6E34               	movwf	tocar_nota@tfrec^0,c
   858  007DDA  0E9B               	movlw	155
   859  007DDC  6E35               	movwf	(tocar_nota@tfrec+1)^0,c
   860  007DDE  0EF4               	movlw	244
   861  007DE0  6E36               	movwf	(tocar_nota@tfrec+2)^0,c
   862  007DE2  0E3F               	movlw	63
   863  007DE4  6E37               	movwf	(tocar_nota@tfrec+3)^0,c
   864  007DE6  ECCA  F037         	call	_tocar_nota	;wreg free
   865                           
   866                           ;main.c: 114:           tocar_nota(300,1.804);
   867  007DEA  0E01               	movlw	1
   868  007DEC  6E33               	movwf	(tocar_nota@duracion+1)^0,c
   869  007DEE  0E2C               	movlw	44
   870  007DF0  6E32               	movwf	tocar_nota@duracion^0,c
   871  007DF2  0E79               	movlw	121
   872  007DF4  6E34               	movwf	tocar_nota@tfrec^0,c
   873  007DF6  0EE9               	movlw	233
   874  007DF8  6E35               	movwf	(tocar_nota@tfrec+1)^0,c
   875  007DFA  0EE6               	movlw	230
   876  007DFC  6E36               	movwf	(tocar_nota@tfrec+2)^0,c
   877  007DFE  0E3F               	movlw	63
   878  007E00  6E37               	movwf	(tocar_nota@tfrec+3)^0,c
   879  007E02  ECCA  F037         	call	_tocar_nota	;wreg free
   880                           
   881                           ;main.c: 116:           silencio(100,3.822);
   882  007E06  0E00               	movlw	0
   883  007E08  6E33               	movwf	(silencio@duracion+1)^0,c
   884  007E0A  0E64               	movlw	100
   885  007E0C  6E32               	movwf	silencio@duracion^0,c
   886  007E0E  0EA6               	movlw	166
   887  007E10  6E34               	movwf	silencio@tfrec^0,c
   888  007E12  0E9B               	movlw	155
   889  007E14  6E35               	movwf	(silencio@tfrec+1)^0,c
   890  007E16  0E74               	movlw	116
   891  007E18  6E36               	movwf	(silencio@tfrec+2)^0,c
   892  007E1A  0E40               	movlw	64
   893  007E1C  6E37               	movwf	(silencio@tfrec+3)^0,c
   894  007E1E  EC12  F037         	call	_silencio	;wreg free
   895                           
   896                           ;main.c: 117:           tocar_nota(300,2.863);
   897  007E22  0E01               	movlw	1
   898  007E24  6E33               	movwf	(tocar_nota@duracion+1)^0,c
   899  007E26  0E2C               	movlw	44
   900  007E28  6E32               	movwf	tocar_nota@duracion^0,c
   901  007E2A  0E64               	movlw	100
   902  007E2C  6E34               	movwf	tocar_nota@tfrec^0,c
   903  007E2E  0E3B               	movlw	59
   904  007E30  6E35               	movwf	(tocar_nota@tfrec+1)^0,c
   905  007E32  0E37               	movlw	55
   906  007E34  6E36               	movwf	(tocar_nota@tfrec+2)^0,c
   907  007E36  0E40               	movlw	64
   908  007E38  6E37               	movwf	(tocar_nota@tfrec+3)^0,c
   909  007E3A  ECCA  F037         	call	_tocar_nota	;wreg free
   910                           
   911                           ;main.c: 118:           tocar_nota(500,2.145);
   912  007E3E  0E01               	movlw	1
   913  007E40  6E33               	movwf	(tocar_nota@duracion+1)^0,c
   914  007E42  0EF4               	movlw	244
   915  007E44  6E32               	movwf	tocar_nota@duracion^0,c
   916  007E46  0EAE               	movlw	174
   917  007E48  6E34               	movwf	tocar_nota@tfrec^0,c
   918  007E4A  0E47               	movlw	71
   919  007E4C  6E35               	movwf	(tocar_nota@tfrec+1)^0,c
   920  007E4E  0E09               	movlw	9
   921  007E50  6E36               	movwf	(tocar_nota@tfrec+2)^0,c
   922  007E52  0E40               	movlw	64
   923  007E54  6E37               	movwf	(tocar_nota@tfrec+3)^0,c
   924  007E56  ECCA  F037         	call	_tocar_nota	;wreg free
   925                           
   926                           ;main.c: 120:           tocar_nota(375,2.273);
   927  007E5A  0E01               	movlw	1
   928  007E5C  6E33               	movwf	(tocar_nota@duracion+1)^0,c
   929  007E5E  0E77               	movlw	119
   930  007E60  6E32               	movwf	tocar_nota@duracion^0,c
   931  007E62  0ED5               	movlw	213
   932  007E64  6E34               	movwf	tocar_nota@tfrec^0,c
   933  007E66  0E78               	movlw	120
   934  007E68  6E35               	movwf	(tocar_nota@tfrec+1)^0,c
   935  007E6A  0E11               	movlw	17
   936  007E6C  6E36               	movwf	(tocar_nota@tfrec+2)^0,c
   937  007E6E  0E40               	movlw	64
   938  007E70  6E37               	movwf	(tocar_nota@tfrec+3)^0,c
   939  007E72  ECCA  F037         	call	_tocar_nota	;wreg free
   940                           
   941                           ;main.c: 121:         tocar_nota(125,2.408);
   942  007E76  0E00               	movlw	0
   943  007E78  6E33               	movwf	(tocar_nota@duracion+1)^0,c
   944  007E7A  0E7D               	movlw	125
   945  007E7C  6E32               	movwf	tocar_nota@duracion^0,c
   946  007E7E  0EAC               	movlw	172
   947  007E80  6E34               	movwf	tocar_nota@tfrec^0,c
   948  007E82  0E1C               	movlw	28
   949  007E84  6E35               	movwf	(tocar_nota@tfrec+1)^0,c
   950  007E86  0E1A               	movlw	26
   951  007E88  6E36               	movwf	(tocar_nota@tfrec+2)^0,c
   952  007E8A  0E40               	movlw	64
   953  007E8C  6E37               	movwf	(tocar_nota@tfrec+3)^0,c
   954  007E8E  ECCA  F037         	call	_tocar_nota	;wreg free
   955                           
   956                           ;main.c: 123:         tocar_nota(125,2.551);
   957  007E92  0E00               	movlw	0
   958  007E94  6E33               	movwf	(tocar_nota@duracion+1)^0,c
   959  007E96  0E7D               	movlw	125
   960  007E98  6E32               	movwf	tocar_nota@duracion^0,c
   961  007E9A  0E96               	movlw	150
   962  007E9C  6E34               	movwf	tocar_nota@tfrec^0,c
   963  007E9E  0E43               	movlw	67
   964  007EA0  6E35               	movwf	(tocar_nota@tfrec+1)^0,c
   965  007EA2  0E23               	movlw	35
   966  007EA4  6E36               	movwf	(tocar_nota@tfrec+2)^0,c
   967  007EA6  0E40               	movlw	64
   968  007EA8  6E37               	movwf	(tocar_nota@tfrec+3)^0,c
   969  007EAA  ECCA  F037         	call	_tocar_nota	;wreg free
   970                           
   971                           ;main.c: 124:         tocar_nota(125,2.703);
   972  007EAE  0E00               	movlw	0
   973  007EB0  6E33               	movwf	(tocar_nota@duracion+1)^0,c
   974  007EB2  0E7D               	movlw	125
   975  007EB4  6E32               	movwf	tocar_nota@duracion^0,c
   976  007EB6  0EF4               	movlw	244
   977  007EB8  6E34               	movwf	tocar_nota@tfrec^0,c
   978  007EBA  0EFD               	movlw	253
   979  007EBC  6E35               	movwf	(tocar_nota@tfrec+1)^0,c
   980  007EBE  0E2C               	movlw	44
   981  007EC0  6E36               	movwf	(tocar_nota@tfrec+2)^0,c
   982  007EC2  0E40               	movlw	64
   983  007EC4  6E37               	movwf	(tocar_nota@tfrec+3)^0,c
   984  007EC6  ECCA  F037         	call	_tocar_nota	;wreg free
   985                           
   986                           ;main.c: 125:         tocar_nota(300,2.551);
   987  007ECA  0E01               	movlw	1
   988  007ECC  6E33               	movwf	(tocar_nota@duracion+1)^0,c
   989  007ECE  0E2C               	movlw	44
   990  007ED0  6E32               	movwf	tocar_nota@duracion^0,c
   991  007ED2  0E96               	movlw	150
   992  007ED4  6E34               	movwf	tocar_nota@tfrec^0,c
   993  007ED6  0E43               	movlw	67
   994  007ED8  6E35               	movwf	(tocar_nota@tfrec+1)^0,c
   995  007EDA  0E23               	movlw	35
   996  007EDC  6E36               	movwf	(tocar_nota@tfrec+2)^0,c
   997  007EDE  0E40               	movlw	64
   998  007EE0  6E37               	movwf	(tocar_nota@tfrec+3)^0,c
   999  007EE2  ECCA  F037         	call	_tocar_nota	;wreg free
  1000                           
  1001                           ;main.c: 127:         silencio(100,3.822);
  1002  007EE6  0E00               	movlw	0
  1003  007EE8  6E33               	movwf	(silencio@duracion+1)^0,c
  1004  007EEA  0E64               	movlw	100
  1005  007EEC  6E32               	movwf	silencio@duracion^0,c
  1006  007EEE  0EA6               	movlw	166
  1007  007EF0  6E34               	movwf	silencio@tfrec^0,c
  1008  007EF2  0E9B               	movlw	155
  1009  007EF4  6E35               	movwf	(silencio@tfrec+1)^0,c
  1010  007EF6  0E74               	movlw	116
  1011  007EF8  6E36               	movwf	(silencio@tfrec+2)^0,c
  1012  007EFA  0E40               	movlw	64
  1013  007EFC  6E37               	movwf	(silencio@tfrec+3)^0,c
  1014  007EFE  EC12  F037         	call	_silencio	;wreg free
  1015                           
  1016                           ;main.c: 128:         tocar_nota(300,3.822);
  1017  007F02  0E01               	movlw	1
  1018  007F04  6E33               	movwf	(tocar_nota@duracion+1)^0,c
  1019  007F06  0E2C               	movlw	44
  1020  007F08  6E32               	movwf	tocar_nota@duracion^0,c
  1021  007F0A  0EA6               	movlw	166
  1022  007F0C  6E34               	movwf	tocar_nota@tfrec^0,c
  1023  007F0E  0E9B               	movlw	155
  1024  007F10  6E35               	movwf	(tocar_nota@tfrec+1)^0,c
  1025  007F12  0E74               	movlw	116
  1026  007F14  6E36               	movwf	(tocar_nota@tfrec+2)^0,c
  1027  007F16  0E40               	movlw	64
  1028  007F18  6E37               	movwf	(tocar_nota@tfrec+3)^0,c
  1029  007F1A  ECCA  F037         	call	_tocar_nota	;wreg free
  1030                           
  1031                           ;main.c: 129:         tocar_nota(500,3.608);
  1032  007F1E  0E01               	movlw	1
  1033  007F20  6E33               	movwf	(tocar_nota@duracion+1)^0,c
  1034  007F22  0EF4               	movlw	244
  1035  007F24  6E32               	movwf	tocar_nota@duracion^0,c
  1036  007F26  0E79               	movlw	121
  1037  007F28  6E34               	movwf	tocar_nota@tfrec^0,c
  1038  007F2A  0EE9               	movlw	233
  1039  007F2C  6E35               	movwf	(tocar_nota@tfrec+1)^0,c
  1040  007F2E  0E66               	movlw	102
  1041  007F30  6E36               	movwf	(tocar_nota@tfrec+2)^0,c
  1042  007F32  0E40               	movlw	64
  1043  007F34  6E37               	movwf	(tocar_nota@tfrec+3)^0,c
  1044  007F36  ECCA  F037         	call	_tocar_nota	;wreg free
  1045                           
  1046                           ;main.c: 130:          tocar_nota(375,3.822);
  1047  007F3A  0E01               	movlw	1
  1048  007F3C  6E33               	movwf	(tocar_nota@duracion+1)^0,c
  1049  007F3E  0E77               	movlw	119
  1050  007F40  6E32               	movwf	tocar_nota@duracion^0,c
  1051  007F42  0EA6               	movlw	166
  1052  007F44  6E34               	movwf	tocar_nota@tfrec^0,c
  1053  007F46  0E9B               	movlw	155
  1054  007F48  6E35               	movwf	(tocar_nota@tfrec+1)^0,c
  1055  007F4A  0E74               	movlw	116
  1056  007F4C  6E36               	movwf	(tocar_nota@tfrec+2)^0,c
  1057  007F4E  0E40               	movlw	64
  1058  007F50  6E37               	movwf	(tocar_nota@tfrec+3)^0,c
  1059  007F52  ECCA  F037         	call	_tocar_nota	;wreg free
  1060                           
  1061                           ;main.c: 131:         tocar_nota(125,2.551);
  1062  007F56  0E00               	movlw	0
  1063  007F58  6E33               	movwf	(tocar_nota@duracion+1)^0,c
  1064  007F5A  0E7D               	movlw	125
  1065  007F5C  6E32               	movwf	tocar_nota@duracion^0,c
  1066  007F5E  0E96               	movlw	150
  1067  007F60  6E34               	movwf	tocar_nota@tfrec^0,c
  1068  007F62  0E43               	movlw	67
  1069  007F64  6E35               	movwf	(tocar_nota@tfrec+1)^0,c
  1070  007F66  0E23               	movlw	35
  1071  007F68  6E36               	movwf	(tocar_nota@tfrec+2)^0,c
  1072  007F6A  0E40               	movlw	64
  1073  007F6C  6E37               	movwf	(tocar_nota@tfrec+3)^0,c
  1074  007F6E  ECCA  F037         	call	_tocar_nota	;wreg free
  1075                           
  1076                           ;main.c: 133:         tocar_nota(500,3.034);
  1077  007F72  0E01               	movlw	1
  1078  007F74  6E33               	movwf	(tocar_nota@duracion+1)^0,c
  1079  007F76  0EF4               	movlw	244
  1080  007F78  6E32               	movwf	tocar_nota@duracion^0,c
  1081  007F7A  0E0E               	movlw	14
  1082  007F7C  6E34               	movwf	tocar_nota@tfrec^0,c
  1083  007F7E  0E2D               	movlw	45
  1084  007F80  6E35               	movwf	(tocar_nota@tfrec+1)^0,c
  1085  007F82  0E42               	movlw	66
  1086  007F84  6E36               	movwf	(tocar_nota@tfrec+2)^0,c
  1087  007F86  0E40               	movlw	64
  1088  007F88  6E37               	movwf	(tocar_nota@tfrec+3)^0,c
  1089  007F8A  ECCA  F037         	call	_tocar_nota	;wreg free
  1090                           
  1091                           ;main.c: 134:         tocar_nota(375,3.822);
  1092  007F8E  0E01               	movlw	1
  1093  007F90  6E33               	movwf	(tocar_nota@duracion+1)^0,c
  1094  007F92  0E77               	movlw	119
  1095  007F94  6E32               	movwf	tocar_nota@duracion^0,c
  1096  007F96  0EA6               	movlw	166
  1097  007F98  6E34               	movwf	tocar_nota@tfrec^0,c
  1098  007F9A  0E9B               	movlw	155
  1099  007F9C  6E35               	movwf	(tocar_nota@tfrec+1)^0,c
  1100  007F9E  0E74               	movlw	116
  1101  007FA0  6E36               	movwf	(tocar_nota@tfrec+2)^0,c
  1102  007FA2  0E40               	movlw	64
  1103  007FA4  6E37               	movwf	(tocar_nota@tfrec+3)^0,c
  1104  007FA6  ECCA  F037         	call	_tocar_nota	;wreg free
  1105                           
  1106                           ;main.c: 135:         tocar_nota(125,2.551);
  1107  007FAA  0E00               	movlw	0
  1108  007FAC  6E33               	movwf	(tocar_nota@duracion+1)^0,c
  1109  007FAE  0E7D               	movlw	125
  1110  007FB0  6E32               	movwf	tocar_nota@duracion^0,c
  1111  007FB2  0E96               	movlw	150
  1112  007FB4  6E34               	movwf	tocar_nota@tfrec^0,c
  1113  007FB6  0E43               	movlw	67
  1114  007FB8  6E35               	movwf	(tocar_nota@tfrec+1)^0,c
  1115  007FBA  0E23               	movlw	35
  1116  007FBC  6E36               	movwf	(tocar_nota@tfrec+2)^0,c
  1117  007FBE  0E40               	movlw	64
  1118  007FC0  6E37               	movwf	(tocar_nota@tfrec+3)^0,c
  1119  007FC2  ECCA  F037         	call	_tocar_nota	;wreg free
  1120                           
  1121                           ;main.c: 136:         tocar_nota(2500,3.034);
  1122  007FC6  0E09               	movlw	9
  1123  007FC8  6E33               	movwf	(tocar_nota@duracion+1)^0,c
  1124  007FCA  0EC4               	movlw	196
  1125  007FCC  6E32               	movwf	tocar_nota@duracion^0,c
  1126  007FCE  0E0E               	movlw	14
  1127  007FD0  6E34               	movwf	tocar_nota@tfrec^0,c
  1128  007FD2  0E2D               	movlw	45
  1129  007FD4  6E35               	movwf	(tocar_nota@tfrec+1)^0,c
  1130  007FD6  0E42               	movlw	66
  1131  007FD8  6E36               	movwf	(tocar_nota@tfrec+2)^0,c
  1132  007FDA  0E40               	movlw	64
  1133  007FDC  6E37               	movwf	(tocar_nota@tfrec+3)^0,c
  1134  007FDE  ECCA  F037         	call	_tocar_nota	;wreg free
  1135                           
  1136                           ;main.c: 137:         silencio(1000,3.822);
  1137  007FE2  0E03               	movlw	3
  1138  007FE4  6E33               	movwf	(silencio@duracion+1)^0,c
  1139  007FE6  0EE8               	movlw	232
  1140  007FE8  6E32               	movwf	silencio@duracion^0,c
  1141  007FEA  0EA6               	movlw	166
  1142  007FEC  6E34               	movwf	silencio@tfrec^0,c
  1143  007FEE  0E9B               	movlw	155
  1144  007FF0  6E35               	movwf	(silencio@tfrec+1)^0,c
  1145  007FF2  0E74               	movlw	116
  1146  007FF4  6E36               	movwf	(silencio@tfrec+2)^0,c
  1147  007FF6  0E40               	movlw	64
  1148  007FF8  6E37               	movwf	(silencio@tfrec+3)^0,c
  1149  007FFA  EC12  F037         	call	_silencio	;wreg free
  1150  007FFE  0012               	return		;funcret
  1151  008000                     __end_of_cancion1:
  1152                           	callstack 0
  1153                           
  1154 ;; *************** function _tocar_nota *****************
  1155 ;; Defined at:
  1156 ;;		line 18 in file "main.c"
  1157 ;; Parameters:    Size  Location     Type
  1158 ;;  duracion        2   49[COMRAM] int 
  1159 ;;  tfrec           4   51[COMRAM] float 
  1160 ;; Auto vars:     Size  Location     Type
  1161 ;;		None
  1162 ;; Return value:  Size  Location     Type
  1163 ;;                  1    wreg      void 
  1164 ;; Registers used:
  1165 ;;		wreg, status,2, status,0, cstack
  1166 ;; Tracked objects:
  1167 ;;		On entry : 0/0
  1168 ;;		On exit  : 0/0
  1169 ;;		Unchanged: 0/0
  1170 ;; Data sizes:     COMRAM   BANK0   BANK1   BANK2   BANK3   BANK4   BANK5   BANK6   BANK7
  1171 ;;      Params:         6       0       0       0       0       0       0       0       0
  1172 ;;      Locals:         4       0       0       0       0       0       0       0       0
  1173 ;;      Temps:          1       0       0       0       0       0       0       0       0
  1174 ;;      Totals:        11       0       0       0       0       0       0       0       0
  1175 ;;Total ram usage:       11 bytes
  1176 ;; Hardware stack levels used: 1
  1177 ;; Hardware stack levels required when called: 2
  1178 ;; This function calls:
  1179 ;;		___fldiv
  1180 ;;		___flsub
  1181 ;;		___fltol
  1182 ;;		___xxtofl
  1183 ;; This function is called by:
  1184 ;;		_cancion1
  1185 ;; This function uses a non-reentrant model
  1186 ;;
  1187                           
  1188                           	psect	text3
  1189  006F94                     __ptext3:
  1190                           	callstack 0
  1191  006F94                     _tocar_nota:
  1192                           	callstack 27
  1193  006F94                     
  1194                           ;main.c: 21:      duracion = duracion/tfrec;
  1195  006F94  C034  F013         	movff	tocar_nota@tfrec,___fldiv@a
  1196  006F98  C035  F014         	movff	tocar_nota@tfrec+1,___fldiv@a+1
  1197  006F9C  C036  F015         	movff	tocar_nota@tfrec+2,___fldiv@a+2
  1198  006FA0  C037  F016         	movff	tocar_nota@tfrec+3,___fldiv@a+3
  1199  006FA4  C032  F001         	movff	tocar_nota@duracion,___xxtofl@val
  1200  006FA8  C033  F002         	movff	tocar_nota@duracion+1,___xxtofl@val+1
  1201  006FAC  0E00               	movlw	0
  1202  006FAE  BE02               	btfsc	(___xxtofl@val+1)^0,7,c
  1203  006FB0  0EFF               	movlw	-1
  1204  006FB2  6E03               	movwf	(___xxtofl@val+2)^0,c
  1205  006FB4  6E04               	movwf	(___xxtofl@val+3)^0,c
  1206  006FB6  0E01               	movlw	1
  1207  006FB8  EC82  F038         	call	___xxtofl
  1208  006FBC  C001  F00F         	movff	?___xxtofl,___fldiv@b
  1209  006FC0  C002  F010         	movff	?___xxtofl+1,___fldiv@b+1
  1210  006FC4  C003  F011         	movff	?___xxtofl+2,___fldiv@b+2
  1211  006FC8  C004  F012         	movff	?___xxtofl+3,___fldiv@b+3
  1212  006FCC  EC5C  F039         	call	___fldiv	;wreg free
  1213  006FD0  C00F  F028         	movff	?___fldiv,___fltol@f1
  1214  006FD4  C010  F029         	movff	?___fldiv+1,___fltol@f1+1
  1215  006FD8  C011  F02A         	movff	?___fldiv+2,___fltol@f1+2
  1216  006FDC  C012  F02B         	movff	?___fldiv+3,___fltol@f1+3
  1217  006FE0  EC8F  F036         	call	___fltol	;wreg free
  1218  006FE4  C028  F032         	movff	?___fltol,tocar_nota@duracion
  1219  006FE8  C029  F033         	movff	?___fltol+1,tocar_nota@duracion+1
  1220                           
  1221                           ;main.c: 22:      tfrec = 255-((tfrec/2)/(.0002*128));
  1222  006FEC  0E00               	movlw	0
  1223  006FEE  6E13               	movwf	___fldiv@a^0,c
  1224  006FF0  0E00               	movlw	0
  1225  006FF2  6E14               	movwf	(___fldiv@a+1)^0,c
  1226  006FF4  0E00               	movlw	0
  1227  006FF6  6E15               	movwf	(___fldiv@a+2)^0,c
  1228  006FF8  0E40               	movlw	64
  1229  006FFA  6E16               	movwf	(___fldiv@a+3)^0,c
  1230  006FFC  C034  F00F         	movff	tocar_nota@tfrec,___fldiv@b
  1231  007000  C035  F010         	movff	tocar_nota@tfrec+1,___fldiv@b+1
  1232  007004  C036  F011         	movff	tocar_nota@tfrec+2,___fldiv@b+2
  1233  007008  C037  F012         	movff	tocar_nota@tfrec+3,___fldiv@b+3
  1234  00700C  EC5C  F039         	call	___fldiv	;wreg free
  1235  007010  C00F  F039         	movff	?___fldiv,_tocar_nota$874
  1236  007014  C010  F03A         	movff	?___fldiv+1,_tocar_nota$874+1
  1237  007018  C011  F03B         	movff	?___fldiv+2,_tocar_nota$874+2
  1238  00701C  C012  F03C         	movff	?___fldiv+3,_tocar_nota$874+3
  1239                           
  1240                           ;main.c: 22:      tfrec = 255-((tfrec/2)/(.0002*128));
  1241  007020  0E00               	movlw	0
  1242  007022  6E28               	movwf	___flsub@b^0,c
  1243  007024  0E00               	movlw	0
  1244  007026  6E29               	movwf	(___flsub@b+1)^0,c
  1245  007028  0E7F               	movlw	127
  1246  00702A  6E2A               	movwf	(___flsub@b+2)^0,c
  1247  00702C  0E43               	movlw	67
  1248  00702E  6E2B               	movwf	(___flsub@b+3)^0,c
  1249  007030  0E17               	movlw	23
  1250  007032  6E13               	movwf	___fldiv@a^0,c
  1251  007034  0EB7               	movlw	183
  1252  007036  6E14               	movwf	(___fldiv@a+1)^0,c
  1253  007038  0ED1               	movlw	209
  1254  00703A  6E15               	movwf	(___fldiv@a+2)^0,c
  1255  00703C  0E3C               	movlw	60
  1256  00703E  6E16               	movwf	(___fldiv@a+3)^0,c
  1257  007040  C039  F00F         	movff	_tocar_nota$874,___fldiv@b
  1258  007044  C03A  F010         	movff	_tocar_nota$874+1,___fldiv@b+1
  1259  007048  C03B  F011         	movff	_tocar_nota$874+2,___fldiv@b+2
  1260  00704C  C03C  F012         	movff	_tocar_nota$874+3,___fldiv@b+3
  1261  007050  EC5C  F039         	call	___fldiv	;wreg free
  1262  007054  C00F  F02C         	movff	?___fldiv,___flsub@a
  1263  007058  C010  F02D         	movff	?___fldiv+1,___flsub@a+1
  1264  00705C  C011  F02E         	movff	?___fldiv+2,___flsub@a+2
  1265  007060  C012  F02F         	movff	?___fldiv+3,___flsub@a+3
  1266  007064  EC6C  F036         	call	___flsub	;wreg free
  1267  007068  C028  F034         	movff	?___flsub,tocar_nota@tfrec
  1268  00706C  C029  F035         	movff	?___flsub+1,tocar_nota@tfrec+1
  1269  007070  C02A  F036         	movff	?___flsub+2,tocar_nota@tfrec+2
  1270  007074  C02B  F037         	movff	?___flsub+3,tocar_nota@tfrec+3
  1271  007078                     
  1272                           ;main.c: 24:        for(b=0;b<duracion;b++){
  1273  007078  0E00               	movlw	0
  1274  00707A  6E48               	movwf	(_b+1)^0,c
  1275  00707C  0E00               	movlw	0
  1276  00707E  6E47               	movwf	_b^0,c
  1277  007080  EF72  F038         	goto	l1671
  1278  007084                     l30:
  1279                           
  1280                           ;main.c: 26:             PORTAbits.RA0 = 1;
  1281  007084  8080               	bsf	128,0,c	;volatile
  1282  007086                     
  1283                           ;main.c: 27:            TMR0 = tfrec;
  1284  007086  C034  F028         	movff	tocar_nota@tfrec,___fltol@f1
  1285  00708A  C035  F029         	movff	tocar_nota@tfrec+1,___fltol@f1+1
  1286  00708E  C036  F02A         	movff	tocar_nota@tfrec+2,___fltol@f1+2
  1287  007092  C037  F02B         	movff	tocar_nota@tfrec+3,___fltol@f1+3
  1288  007096  EC8F  F036         	call	___fltol	;wreg free
  1289  00709A  C028  FFD6         	movff	?___fltol,4054	;volatile
  1290  00709E  C029  FFD7         	movff	?___fltol+1,4055	;volatile
  1291  0070A2                     l31:
  1292  0070A2  A4F2               	btfss	242,2,c	;volatile
  1293  0070A4  EF56  F038         	goto	u1671
  1294  0070A8  EF58  F038         	goto	u1670
  1295  0070AC                     u1671:
  1296  0070AC  EF51  F038         	goto	l31
  1297  0070B0                     u1670:
  1298  0070B0                     
  1299                           ;main.c: 29:            INTCONbits.TMR0IF=0;
  1300  0070B0  94F2               	bcf	242,2,c	;volatile
  1301                           
  1302                           ;main.c: 31:         PORTAbits.RA0=0;
  1303  0070B2  9080               	bcf	128,0,c	;volatile
  1304  0070B4                     
  1305                           ;main.c: 32:          TMR0 = tfrec;
  1306  0070B4  C034  F028         	movff	tocar_nota@tfrec,___fltol@f1
  1307  0070B8  C035  F029         	movff	tocar_nota@tfrec+1,___fltol@f1+1
  1308  0070BC  C036  F02A         	movff	tocar_nota@tfrec+2,___fltol@f1+2
  1309  0070C0  C037  F02B         	movff	tocar_nota@tfrec+3,___fltol@f1+3
  1310  0070C4  EC8F  F036         	call	___fltol	;wreg free
  1311  0070C8  C028  FFD6         	movff	?___fltol,4054	;volatile
  1312  0070CC  C029  FFD7         	movff	?___fltol+1,4055	;volatile
  1313  0070D0                     l34:
  1314  0070D0  A4F2               	btfss	242,2,c	;volatile
  1315  0070D2  EF6D  F038         	goto	u1681
  1316  0070D6  EF6F  F038         	goto	u1680
  1317  0070DA                     u1681:
  1318  0070DA  EF68  F038         	goto	l34
  1319  0070DE                     u1680:
  1320  0070DE                     
  1321                           ;main.c: 34:          INTCONbits.TMR0IF=0;
  1322  0070DE  94F2               	bcf	242,2,c	;volatile
  1323  0070E0                     
  1324                           ;main.c: 35: }
  1325  0070E0  4A47               	infsnz	_b^0,f,c
  1326  0070E2  2A48               	incf	(_b+1)^0,f,c
  1327  0070E4                     l1671:
  1328  0070E4  5032               	movf	tocar_nota@duracion^0,w,c
  1329  0070E6  5C47               	subwf	_b^0,w,c
  1330  0070E8  5048               	movf	(_b+1)^0,w,c
  1331  0070EA  0A80               	xorlw	128
  1332  0070EC  6E38               	movwf	??_tocar_nota^0,c
  1333  0070EE  5033               	movf	(tocar_nota@duracion+1)^0,w,c
  1334  0070F0  0A80               	xorlw	128
  1335  0070F2  5838               	subwfb	??_tocar_nota^0,w,c
  1336  0070F4  A0D8               	btfss	status,0,c
  1337  0070F6  EF7F  F038         	goto	u1691
  1338  0070FA  EF81  F038         	goto	u1690
  1339  0070FE                     u1691:
  1340  0070FE  EF42  F038         	goto	l30
  1341  007102                     u1690:
  1342  007102  0012               	return		;funcret
  1343  007104                     __end_of_tocar_nota:
  1344                           	callstack 0
  1345                           
  1346 ;; *************** function _silencio *****************
  1347 ;; Defined at:
  1348 ;;		line 38 in file "main.c"
  1349 ;; Parameters:    Size  Location     Type
  1350 ;;  duracion        2   49[COMRAM] int 
  1351 ;;  tfrec           4   51[COMRAM] float 
  1352 ;; Auto vars:     Size  Location     Type
  1353 ;;		None
  1354 ;; Return value:  Size  Location     Type
  1355 ;;                  1    wreg      void 
  1356 ;; Registers used:
  1357 ;;		wreg, status,2, status,0, cstack
  1358 ;; Tracked objects:
  1359 ;;		On entry : 0/0
  1360 ;;		On exit  : 0/0
  1361 ;;		Unchanged: 0/0
  1362 ;; Data sizes:     COMRAM   BANK0   BANK1   BANK2   BANK3   BANK4   BANK5   BANK6   BANK7
  1363 ;;      Params:         6       0       0       0       0       0       0       0       0
  1364 ;;      Locals:         4       0       0       0       0       0       0       0       0
  1365 ;;      Temps:          1       0       0       0       0       0       0       0       0
  1366 ;;      Totals:        11       0       0       0       0       0       0       0       0
  1367 ;;Total ram usage:       11 bytes
  1368 ;; Hardware stack levels used: 1
  1369 ;; Hardware stack levels required when called: 2
  1370 ;; This function calls:
  1371 ;;		___fldiv
  1372 ;;		___flsub
  1373 ;;		___fltol
  1374 ;;		___xxtofl
  1375 ;; This function is called by:
  1376 ;;		_cancion1
  1377 ;; This function uses a non-reentrant model
  1378 ;;
  1379                           
  1380                           	psect	text4
  1381  006E24                     __ptext4:
  1382                           	callstack 0
  1383  006E24                     _silencio:
  1384                           	callstack 27
  1385  006E24                     
  1386                           ;main.c: 40:      duracion = duracion/tfrec;
  1387  006E24  C034  F013         	movff	silencio@tfrec,___fldiv@a
  1388  006E28  C035  F014         	movff	silencio@tfrec+1,___fldiv@a+1
  1389  006E2C  C036  F015         	movff	silencio@tfrec+2,___fldiv@a+2
  1390  006E30  C037  F016         	movff	silencio@tfrec+3,___fldiv@a+3
  1391  006E34  C032  F001         	movff	silencio@duracion,___xxtofl@val
  1392  006E38  C033  F002         	movff	silencio@duracion+1,___xxtofl@val+1
  1393  006E3C  0E00               	movlw	0
  1394  006E3E  BE02               	btfsc	(___xxtofl@val+1)^0,7,c
  1395  006E40  0EFF               	movlw	-1
  1396  006E42  6E03               	movwf	(___xxtofl@val+2)^0,c
  1397  006E44  6E04               	movwf	(___xxtofl@val+3)^0,c
  1398  006E46  0E01               	movlw	1
  1399  006E48  EC82  F038         	call	___xxtofl
  1400  006E4C  C001  F00F         	movff	?___xxtofl,___fldiv@b
  1401  006E50  C002  F010         	movff	?___xxtofl+1,___fldiv@b+1
  1402  006E54  C003  F011         	movff	?___xxtofl+2,___fldiv@b+2
  1403  006E58  C004  F012         	movff	?___xxtofl+3,___fldiv@b+3
  1404  006E5C  EC5C  F039         	call	___fldiv	;wreg free
  1405  006E60  C00F  F028         	movff	?___fldiv,___fltol@f1
  1406  006E64  C010  F029         	movff	?___fldiv+1,___fltol@f1+1
  1407  006E68  C011  F02A         	movff	?___fldiv+2,___fltol@f1+2
  1408  006E6C  C012  F02B         	movff	?___fldiv+3,___fltol@f1+3
  1409  006E70  EC8F  F036         	call	___fltol	;wreg free
  1410  006E74  C028  F032         	movff	?___fltol,silencio@duracion
  1411  006E78  C029  F033         	movff	?___fltol+1,silencio@duracion+1
  1412                           
  1413                           ;main.c: 41:      tfrec = 255-((tfrec/2)/(.0002*128));
  1414  006E7C  0E00               	movlw	0
  1415  006E7E  6E13               	movwf	___fldiv@a^0,c
  1416  006E80  0E00               	movlw	0
  1417  006E82  6E14               	movwf	(___fldiv@a+1)^0,c
  1418  006E84  0E00               	movlw	0
  1419  006E86  6E15               	movwf	(___fldiv@a+2)^0,c
  1420  006E88  0E40               	movlw	64
  1421  006E8A  6E16               	movwf	(___fldiv@a+3)^0,c
  1422  006E8C  C034  F00F         	movff	silencio@tfrec,___fldiv@b
  1423  006E90  C035  F010         	movff	silencio@tfrec+1,___fldiv@b+1
  1424  006E94  C036  F011         	movff	silencio@tfrec+2,___fldiv@b+2
  1425  006E98  C037  F012         	movff	silencio@tfrec+3,___fldiv@b+3
  1426  006E9C  EC5C  F039         	call	___fldiv	;wreg free
  1427  006EA0  C00F  F039         	movff	?___fldiv,_silencio$875
  1428  006EA4  C010  F03A         	movff	?___fldiv+1,_silencio$875+1
  1429  006EA8  C011  F03B         	movff	?___fldiv+2,_silencio$875+2
  1430  006EAC  C012  F03C         	movff	?___fldiv+3,_silencio$875+3
  1431                           
  1432                           ;main.c: 41:      tfrec = 255-((tfrec/2)/(.0002*128));
  1433  006EB0  0E00               	movlw	0
  1434  006EB2  6E28               	movwf	___flsub@b^0,c
  1435  006EB4  0E00               	movlw	0
  1436  006EB6  6E29               	movwf	(___flsub@b+1)^0,c
  1437  006EB8  0E7F               	movlw	127
  1438  006EBA  6E2A               	movwf	(___flsub@b+2)^0,c
  1439  006EBC  0E43               	movlw	67
  1440  006EBE  6E2B               	movwf	(___flsub@b+3)^0,c
  1441  006EC0  0E17               	movlw	23
  1442  006EC2  6E13               	movwf	___fldiv@a^0,c
  1443  006EC4  0EB7               	movlw	183
  1444  006EC6  6E14               	movwf	(___fldiv@a+1)^0,c
  1445  006EC8  0ED1               	movlw	209
  1446  006ECA  6E15               	movwf	(___fldiv@a+2)^0,c
  1447  006ECC  0E3C               	movlw	60
  1448  006ECE  6E16               	movwf	(___fldiv@a+3)^0,c
  1449  006ED0  C039  F00F         	movff	_silencio$875,___fldiv@b
  1450  006ED4  C03A  F010         	movff	_silencio$875+1,___fldiv@b+1
  1451  006ED8  C03B  F011         	movff	_silencio$875+2,___fldiv@b+2
  1452  006EDC  C03C  F012         	movff	_silencio$875+3,___fldiv@b+3
  1453  006EE0  EC5C  F039         	call	___fldiv	;wreg free
  1454  006EE4  C00F  F02C         	movff	?___fldiv,___flsub@a
  1455  006EE8  C010  F02D         	movff	?___fldiv+1,___flsub@a+1
  1456  006EEC  C011  F02E         	movff	?___fldiv+2,___flsub@a+2
  1457  006EF0  C012  F02F         	movff	?___fldiv+3,___flsub@a+3
  1458  006EF4  EC6C  F036         	call	___flsub	;wreg free
  1459  006EF8  C028  F034         	movff	?___flsub,silencio@tfrec
  1460  006EFC  C029  F035         	movff	?___flsub+1,silencio@tfrec+1
  1461  006F00  C02A  F036         	movff	?___flsub+2,silencio@tfrec+2
  1462  006F04  C02B  F037         	movff	?___flsub+3,silencio@tfrec+3
  1463  006F08                     
  1464                           ;main.c: 43:        for(b=0;b<duracion;b++){
  1465  006F08  0E00               	movlw	0
  1466  006F0A  6E48               	movwf	(_b+1)^0,c
  1467  006F0C  0E00               	movlw	0
  1468  006F0E  6E47               	movwf	_b^0,c
  1469  006F10  EFBA  F037         	goto	l1683
  1470  006F14                     l42:
  1471                           
  1472                           ;main.c: 44:             PORTAbits.RA0 = 0;
  1473  006F14  9080               	bcf	128,0,c	;volatile
  1474  006F16                     
  1475                           ;main.c: 45:            TMR0 = tfrec;
  1476  006F16  C034  F028         	movff	silencio@tfrec,___fltol@f1
  1477  006F1A  C035  F029         	movff	silencio@tfrec+1,___fltol@f1+1
  1478  006F1E  C036  F02A         	movff	silencio@tfrec+2,___fltol@f1+2
  1479  006F22  C037  F02B         	movff	silencio@tfrec+3,___fltol@f1+3
  1480  006F26  EC8F  F036         	call	___fltol	;wreg free
  1481  006F2A  C028  FFD6         	movff	?___fltol,4054	;volatile
  1482  006F2E  C029  FFD7         	movff	?___fltol+1,4055	;volatile
  1483  006F32                     l43:
  1484  006F32  A4F2               	btfss	242,2,c	;volatile
  1485  006F34  EF9E  F037         	goto	u1701
  1486  006F38  EFA0  F037         	goto	u1700
  1487  006F3C                     u1701:
  1488  006F3C  EF99  F037         	goto	l43
  1489  006F40                     u1700:
  1490  006F40                     
  1491                           ;main.c: 47:            INTCONbits.TMR0IF=0;
  1492  006F40  94F2               	bcf	242,2,c	;volatile
  1493                           
  1494                           ;main.c: 49:         PORTAbits.RA0=0;
  1495  006F42  9080               	bcf	128,0,c	;volatile
  1496  006F44                     
  1497                           ;main.c: 50:          TMR0 = tfrec;
  1498  006F44  C034  F028         	movff	silencio@tfrec,___fltol@f1
  1499  006F48  C035  F029         	movff	silencio@tfrec+1,___fltol@f1+1
  1500  006F4C  C036  F02A         	movff	silencio@tfrec+2,___fltol@f1+2
  1501  006F50  C037  F02B         	movff	silencio@tfrec+3,___fltol@f1+3
  1502  006F54  EC8F  F036         	call	___fltol	;wreg free
  1503  006F58  C028  FFD6         	movff	?___fltol,4054	;volatile
  1504  006F5C  C029  FFD7         	movff	?___fltol+1,4055	;volatile
  1505  006F60                     l46:
  1506  006F60  A4F2               	btfss	242,2,c	;volatile
  1507  006F62  EFB5  F037         	goto	u1711
  1508  006F66  EFB7  F037         	goto	u1710
  1509  006F6A                     u1711:
  1510  006F6A  EFB0  F037         	goto	l46
  1511  006F6E                     u1710:
  1512  006F6E                     
  1513                           ;main.c: 52:          INTCONbits.TMR0IF=0;
  1514  006F6E  94F2               	bcf	242,2,c	;volatile
  1515  006F70                     
  1516                           ;main.c: 53: }
  1517  006F70  4A47               	infsnz	_b^0,f,c
  1518  006F72  2A48               	incf	(_b+1)^0,f,c
  1519  006F74                     l1683:
  1520  006F74  5032               	movf	silencio@duracion^0,w,c
  1521  006F76  5C47               	subwf	_b^0,w,c
  1522  006F78  5048               	movf	(_b+1)^0,w,c
  1523  006F7A  0A80               	xorlw	128
  1524  006F7C  6E38               	movwf	??_silencio^0,c
  1525  006F7E  5033               	movf	(silencio@duracion+1)^0,w,c
  1526  006F80  0A80               	xorlw	128
  1527  006F82  5838               	subwfb	??_silencio^0,w,c
  1528  006F84  A0D8               	btfss	status,0,c
  1529  006F86  EFC7  F037         	goto	u1721
  1530  006F8A  EFC9  F037         	goto	u1720
  1531  006F8E                     u1721:
  1532  006F8E  EF8A  F037         	goto	l42
  1533  006F92                     u1720:
  1534  006F92  0012               	return		;funcret
  1535  006F94                     __end_of_silencio:
  1536                           	callstack 0
  1537                           
  1538 ;; *************** function ___xxtofl *****************
  1539 ;; Defined at:
  1540 ;;		line 10 in file "C:\Program Files\Microchip\xc8\v2.32\pic\sources\c99\common\xxtofl.c"
  1541 ;; Parameters:    Size  Location     Type
  1542 ;;  sign            1    wreg     unsigned char 
  1543 ;;  val             4    0[COMRAM] long 
  1544 ;; Auto vars:     Size  Location     Type
  1545 ;;  sign            1    8[COMRAM] unsigned char 
  1546 ;;  arg             4   10[COMRAM] unsigned long 
  1547 ;;  exp             1    9[COMRAM] unsigned char 
  1548 ;; Return value:  Size  Location     Type
  1549 ;;                  4    0[COMRAM] unsigned char 
  1550 ;; Registers used:
  1551 ;;		wreg, status,2, status,0
  1552 ;; Tracked objects:
  1553 ;;		On entry : 0/0
  1554 ;;		On exit  : 0/0
  1555 ;;		Unchanged: 0/0
  1556 ;; Data sizes:     COMRAM   BANK0   BANK1   BANK2   BANK3   BANK4   BANK5   BANK6   BANK7
  1557 ;;      Params:         4       0       0       0       0       0       0       0       0
  1558 ;;      Locals:         6       0       0       0       0       0       0       0       0
  1559 ;;      Temps:          4       0       0       0       0       0       0       0       0
  1560 ;;      Totals:        14       0       0       0       0       0       0       0       0
  1561 ;;Total ram usage:       14 bytes
  1562 ;; Hardware stack levels used: 1
  1563 ;; This function calls:
  1564 ;;		Nothing
  1565 ;; This function is called by:
  1566 ;;		_tocar_nota
  1567 ;;		_silencio
  1568 ;; This function uses a non-reentrant model
  1569 ;;
  1570                           
  1571                           	psect	text5
  1572  007104                     __ptext5:
  1573                           	callstack 0
  1574  007104                     ___xxtofl:
  1575                           	callstack 28
  1576                           
  1577                           ;incstack = 0
  1578                           ;___xxtofl@sign stored from wreg
  1579  007104  6E09               	movwf	___xxtofl@sign^0,c
  1580  007106  5009               	movf	___xxtofl@sign^0,w,c
  1581  007108  B4D8               	btfsc	status,2,c
  1582  00710A  EF89  F038         	goto	u1571
  1583  00710E  EF8B  F038         	goto	u1570
  1584  007112                     u1571:
  1585  007112  EFAD  F038         	goto	l727
  1586  007116                     u1570:
  1587  007116  BE04               	btfsc	(___xxtofl@val+3)^0,7,c
  1588  007118  EF92  F038         	goto	u1580
  1589  00711C  EF90  F038         	goto	u1581
  1590  007120                     u1581:
  1591  007120  EFAD  F038         	goto	l727
  1592  007124                     u1580:
  1593  007124  C001  F005         	movff	___xxtofl@val,??___xxtofl
  1594  007128  C002  F006         	movff	___xxtofl@val+1,??___xxtofl+1
  1595  00712C  C003  F007         	movff	___xxtofl@val+2,??___xxtofl+2
  1596  007130  C004  F008         	movff	___xxtofl@val+3,??___xxtofl+3
  1597  007134  1E05               	comf	??___xxtofl^0,f,c
  1598  007136  1E06               	comf	(??___xxtofl+1)^0,f,c
  1599  007138  1E07               	comf	(??___xxtofl+2)^0,f,c
  1600  00713A  1E08               	comf	(??___xxtofl+3)^0,f,c
  1601  00713C  2A05               	incf	??___xxtofl^0,f,c
  1602  00713E  0E00               	movlw	0
  1603  007140  2206               	addwfc	(??___xxtofl+1)^0,f,c
  1604  007142  2207               	addwfc	(??___xxtofl+2)^0,f,c
  1605  007144  2208               	addwfc	(??___xxtofl+3)^0,f,c
  1606  007146  C005  F00B         	movff	??___xxtofl,___xxtofl@arg
  1607  00714A  C006  F00C         	movff	??___xxtofl+1,___xxtofl@arg+1
  1608  00714E  C007  F00D         	movff	??___xxtofl+2,___xxtofl@arg+2
  1609  007152  C008  F00E         	movff	??___xxtofl+3,___xxtofl@arg+3
  1610  007156  EFB5  F038         	goto	l1621
  1611  00715A                     l727:
  1612  00715A  C001  F00B         	movff	___xxtofl@val,___xxtofl@arg
  1613  00715E  C002  F00C         	movff	___xxtofl@val+1,___xxtofl@arg+1
  1614  007162  C003  F00D         	movff	___xxtofl@val+2,___xxtofl@arg+2
  1615  007166  C004  F00E         	movff	___xxtofl@val+3,___xxtofl@arg+3
  1616  00716A                     l1621:
  1617  00716A  5001               	movf	___xxtofl@val^0,w,c
  1618  00716C  1002               	iorwf	(___xxtofl@val+1)^0,w,c
  1619  00716E  1003               	iorwf	(___xxtofl@val+2)^0,w,c
  1620  007170  1004               	iorwf	(___xxtofl@val+3)^0,w,c
  1621  007172  A4D8               	btfss	status,2,c
  1622  007174  EFBE  F038         	goto	u1591
  1623  007178  EFC0  F038         	goto	u1590
  1624  00717C                     u1591:
  1625  00717C  EFCA  F038         	goto	l1627
  1626  007180                     u1590:
  1627  007180  0E00               	movlw	0
  1628  007182  6E01               	movwf	?___xxtofl^0,c
  1629  007184  0E00               	movlw	0
  1630  007186  6E02               	movwf	(?___xxtofl+1)^0,c
  1631  007188  0E00               	movlw	0
  1632  00718A  6E03               	movwf	(?___xxtofl+2)^0,c
  1633  00718C  0E00               	movlw	0
  1634  00718E  6E04               	movwf	(?___xxtofl+3)^0,c
  1635  007190  EF5B  F039         	goto	l730
  1636  007194                     l1627:
  1637  007194  0E96               	movlw	150
  1638  007196  6E0A               	movwf	___xxtofl@exp^0,c
  1639  007198  EFD4  F038         	goto	l1631
  1640  00719C                     l1629:
  1641  00719C  2A0A               	incf	___xxtofl@exp^0,f,c
  1642  00719E  90D8               	bcf	status,0,c
  1643  0071A0  320E               	rrcf	(___xxtofl@arg+3)^0,f,c
  1644  0071A2  320D               	rrcf	(___xxtofl@arg+2)^0,f,c
  1645  0071A4  320C               	rrcf	(___xxtofl@arg+1)^0,f,c
  1646  0071A6  320B               	rrcf	___xxtofl@arg^0,f,c
  1647  0071A8                     l1631:
  1648  0071A8  0E00               	movlw	0
  1649  0071AA  140B               	andwf	___xxtofl@arg^0,w,c
  1650  0071AC  6E05               	movwf	??___xxtofl^0,c
  1651  0071AE  0E00               	movlw	0
  1652  0071B0  140C               	andwf	(___xxtofl@arg+1)^0,w,c
  1653  0071B2  6E06               	movwf	(??___xxtofl+1)^0,c
  1654  0071B4  0E00               	movlw	0
  1655  0071B6  140D               	andwf	(___xxtofl@arg+2)^0,w,c
  1656  0071B8  6E07               	movwf	(??___xxtofl+2)^0,c
  1657  0071BA  0EFE               	movlw	254
  1658  0071BC  140E               	andwf	(___xxtofl@arg+3)^0,w,c
  1659  0071BE  6E08               	movwf	(??___xxtofl+3)^0,c
  1660  0071C0  5005               	movf	??___xxtofl^0,w,c
  1661  0071C2  1006               	iorwf	(??___xxtofl+1)^0,w,c
  1662  0071C4  1007               	iorwf	(??___xxtofl+2)^0,w,c
  1663  0071C6  1008               	iorwf	(??___xxtofl+3)^0,w,c
  1664  0071C8  A4D8               	btfss	status,2,c
  1665  0071CA  EFE9  F038         	goto	u1601
  1666  0071CE  EFEB  F038         	goto	u1600
  1667  0071D2                     u1601:
  1668  0071D2  EFCE  F038         	goto	l1629
  1669  0071D6                     u1600:
  1670  0071D6  EFF9  F038         	goto	l734
  1671  0071DA                     l1633:
  1672  0071DA  2A0A               	incf	___xxtofl@exp^0,f,c
  1673  0071DC  0E01               	movlw	1
  1674  0071DE  260B               	addwf	___xxtofl@arg^0,f,c
  1675  0071E0  0E00               	movlw	0
  1676  0071E2  220C               	addwfc	(___xxtofl@arg+1)^0,f,c
  1677  0071E4  220D               	addwfc	(___xxtofl@arg+2)^0,f,c
  1678  0071E6  220E               	addwfc	(___xxtofl@arg+3)^0,f,c
  1679  0071E8  90D8               	bcf	status,0,c
  1680  0071EA  320E               	rrcf	(___xxtofl@arg+3)^0,f,c
  1681  0071EC  320D               	rrcf	(___xxtofl@arg+2)^0,f,c
  1682  0071EE  320C               	rrcf	(___xxtofl@arg+1)^0,f,c
  1683  0071F0  320B               	rrcf	___xxtofl@arg^0,f,c
  1684  0071F2                     l734:
  1685  0071F2  0E00               	movlw	0
  1686  0071F4  140B               	andwf	___xxtofl@arg^0,w,c
  1687  0071F6  6E05               	movwf	??___xxtofl^0,c
  1688  0071F8  0E00               	movlw	0
  1689  0071FA  140C               	andwf	(___xxtofl@arg+1)^0,w,c
  1690  0071FC  6E06               	movwf	(??___xxtofl+1)^0,c
  1691  0071FE  0E00               	movlw	0
  1692  007200  140D               	andwf	(___xxtofl@arg+2)^0,w,c
  1693  007202  6E07               	movwf	(??___xxtofl+2)^0,c
  1694  007204  0EFF               	movlw	255
  1695  007206  140E               	andwf	(___xxtofl@arg+3)^0,w,c
  1696  007208  6E08               	movwf	(??___xxtofl+3)^0,c
  1697  00720A  5005               	movf	??___xxtofl^0,w,c
  1698  00720C  1006               	iorwf	(??___xxtofl+1)^0,w,c
  1699  00720E  1007               	iorwf	(??___xxtofl+2)^0,w,c
  1700  007210  1008               	iorwf	(??___xxtofl+3)^0,w,c
  1701  007212  A4D8               	btfss	status,2,c
  1702  007214  EF0E  F039         	goto	u1611
  1703  007218  EF10  F039         	goto	u1610
  1704  00721C                     u1611:
  1705  00721C  EFED  F038         	goto	l1633
  1706  007220                     u1610:
  1707  007220  EF18  F039         	goto	l1641
  1708  007224                     l1639:
  1709  007224  060A               	decf	___xxtofl@exp^0,f,c
  1710  007226  90D8               	bcf	status,0,c
  1711  007228  360B               	rlcf	___xxtofl@arg^0,f,c
  1712  00722A  360C               	rlcf	(___xxtofl@arg+1)^0,f,c
  1713  00722C  360D               	rlcf	(___xxtofl@arg+2)^0,f,c
  1714  00722E  360E               	rlcf	(___xxtofl@arg+3)^0,f,c
  1715  007230                     l1641:
  1716  007230  BE0D               	btfsc	(___xxtofl@arg+2)^0,7,c
  1717  007232  EF1D  F039         	goto	u1621
  1718  007236  EF1F  F039         	goto	u1620
  1719  00723A                     u1621:
  1720  00723A  EF27  F039         	goto	l741
  1721  00723E                     u1620:
  1722  00723E  0E02               	movlw	2
  1723  007240  600A               	cpfslt	___xxtofl@exp^0,c
  1724  007242  EF25  F039         	goto	u1631
  1725  007246  EF27  F039         	goto	u1630
  1726  00724A                     u1631:
  1727  00724A  EF12  F039         	goto	l1639
  1728  00724E                     u1630:
  1729  00724E                     l741:
  1730  00724E  B00A               	btfsc	___xxtofl@exp^0,0,c
  1731  007250  EF2C  F039         	goto	u1641
  1732  007254  EF2E  F039         	goto	u1640
  1733  007258                     u1641:
  1734  007258  EF2F  F039         	goto	l1647
  1735  00725C                     u1640:
  1736  00725C  9E0D               	bcf	(___xxtofl@arg+2)^0,7,c
  1737  00725E                     l1647:
  1738  00725E  90D8               	bcf	status,0,c
  1739  007260  320A               	rrcf	___xxtofl@exp^0,f,c
  1740  007262  C00A  F005         	movff	___xxtofl@exp,??___xxtofl
  1741  007266  6A06               	clrf	(??___xxtofl+1)^0,c
  1742  007268  6A07               	clrf	(??___xxtofl+2)^0,c
  1743  00726A  6A08               	clrf	(??___xxtofl+3)^0,c
  1744  00726C  C005  F008         	movff	??___xxtofl,??___xxtofl+3
  1745  007270  6A07               	clrf	(??___xxtofl+2)^0,c
  1746  007272  6A06               	clrf	(??___xxtofl+1)^0,c
  1747  007274  6A05               	clrf	??___xxtofl^0,c
  1748  007276  5005               	movf	??___xxtofl^0,w,c
  1749  007278  120B               	iorwf	___xxtofl@arg^0,f,c
  1750  00727A  5006               	movf	(??___xxtofl+1)^0,w,c
  1751  00727C  120C               	iorwf	(___xxtofl@arg+1)^0,f,c
  1752  00727E  5007               	movf	(??___xxtofl+2)^0,w,c
  1753  007280  120D               	iorwf	(___xxtofl@arg+2)^0,f,c
  1754  007282  5008               	movf	(??___xxtofl+3)^0,w,c
  1755  007284  120E               	iorwf	(___xxtofl@arg+3)^0,f,c
  1756  007286  5009               	movf	___xxtofl@sign^0,w,c
  1757  007288  B4D8               	btfsc	status,2,c
  1758  00728A  EF49  F039         	goto	u1651
  1759  00728E  EF4B  F039         	goto	u1650
  1760  007292                     u1651:
  1761  007292  EF53  F039         	goto	l1657
  1762  007296                     u1650:
  1763  007296  BE04               	btfsc	(___xxtofl@val+3)^0,7,c
  1764  007298  EF52  F039         	goto	u1660
  1765  00729C  EF50  F039         	goto	u1661
  1766  0072A0                     u1661:
  1767  0072A0  EF53  F039         	goto	l1657
  1768  0072A4                     u1660:
  1769  0072A4  8E0E               	bsf	(___xxtofl@arg+3)^0,7,c
  1770  0072A6                     l1657:
  1771  0072A6  C00B  F001         	movff	___xxtofl@arg,?___xxtofl
  1772  0072AA  C00C  F002         	movff	___xxtofl@arg+1,?___xxtofl+1
  1773  0072AE  C00D  F003         	movff	___xxtofl@arg+2,?___xxtofl+2
  1774  0072B2  C00E  F004         	movff	___xxtofl@arg+3,?___xxtofl+3
  1775  0072B6                     l730:
  1776  0072B6  0012               	return		;funcret
  1777  0072B8                     __end_of___xxtofl:
  1778                           	callstack 0
  1779                           
  1780 ;; *************** function ___fltol *****************
  1781 ;; Defined at:
  1782 ;;		line 43 in file "C:\Program Files\Microchip\xc8\v2.32\pic\sources\c99\common\fltol.c"
  1783 ;; Parameters:    Size  Location     Type
  1784 ;;  f1              4   39[COMRAM] unsigned char 
  1785 ;; Auto vars:     Size  Location     Type
  1786 ;;  exp1            1   48[COMRAM] unsigned char 
  1787 ;;  sign1           1   47[COMRAM] unsigned char 
  1788 ;; Return value:  Size  Location     Type
  1789 ;;                  4   39[COMRAM] long 
  1790 ;; Registers used:
  1791 ;;		wreg, status,2, status,0
  1792 ;; Tracked objects:
  1793 ;;		On entry : 0/0
  1794 ;;		On exit  : 0/0
  1795 ;;		Unchanged: 0/0
  1796 ;; Data sizes:     COMRAM   BANK0   BANK1   BANK2   BANK3   BANK4   BANK5   BANK6   BANK7
  1797 ;;      Params:         4       0       0       0       0       0       0       0       0
  1798 ;;      Locals:         2       0       0       0       0       0       0       0       0
  1799 ;;      Temps:          4       0       0       0       0       0       0       0       0
  1800 ;;      Totals:        10       0       0       0       0       0       0       0       0
  1801 ;;Total ram usage:       10 bytes
  1802 ;; Hardware stack levels used: 1
  1803 ;; This function calls:
  1804 ;;		Nothing
  1805 ;; This function is called by:
  1806 ;;		_tocar_nota
  1807 ;;		_silencio
  1808 ;; This function uses a non-reentrant model
  1809 ;;
  1810                           
  1811                           	psect	text6
  1812  006D1E                     __ptext6:
  1813                           	callstack 0
  1814  006D1E                     ___fltol:
  1815                           	callstack 28
  1816  006D1E  342A               	rlcf	(___fltol@f1+2)^0,w,c
  1817  006D20  342B               	rlcf	(___fltol@f1+3)^0,w,c
  1818  006D22  6E31               	movwf	___fltol@exp1^0,c
  1819  006D24  5031               	movf	___fltol@exp1^0,w,c
  1820  006D26  A4D8               	btfss	status,2,c
  1821  006D28  EF98  F036         	goto	u1501
  1822  006D2C  EF9A  F036         	goto	u1500
  1823  006D30                     u1501:
  1824  006D30  EFA4  F036         	goto	l1577
  1825  006D34                     u1500:
  1826  006D34                     l1573:
  1827  006D34  0E00               	movlw	0
  1828  006D36  6E28               	movwf	?___fltol^0,c
  1829  006D38  0E00               	movlw	0
  1830  006D3A  6E29               	movwf	(?___fltol+1)^0,c
  1831  006D3C  0E00               	movlw	0
  1832  006D3E  6E2A               	movwf	(?___fltol+2)^0,c
  1833  006D40  0E00               	movlw	0
  1834  006D42  6E2B               	movwf	(?___fltol+3)^0,c
  1835  006D44  EF11  F037         	goto	l369
  1836  006D48                     l1577:
  1837  006D48  C028  F02C         	movff	___fltol@f1,??___fltol
  1838  006D4C  C029  F02D         	movff	___fltol@f1+1,??___fltol+1
  1839  006D50  C02A  F02E         	movff	___fltol@f1+2,??___fltol+2
  1840  006D54  C02B  F02F         	movff	___fltol@f1+3,??___fltol+3
  1841  006D58  0E20               	movlw	32
  1842  006D5A  EFB4  F036         	goto	u1510
  1843  006D5E                     u1515:
  1844  006D5E  90D8               	bcf	status,0,c
  1845  006D60  322F               	rrcf	(??___fltol+3)^0,f,c
  1846  006D62  322E               	rrcf	(??___fltol+2)^0,f,c
  1847  006D64  322D               	rrcf	(??___fltol+1)^0,f,c
  1848  006D66  322C               	rrcf	??___fltol^0,f,c
  1849  006D68                     u1510:
  1850  006D68  2EE8               	decfsz	wreg,f,c
  1851  006D6A  EFAF  F036         	goto	u1515
  1852  006D6E  502C               	movf	??___fltol^0,w,c
  1853  006D70  6E30               	movwf	___fltol@sign1^0,c
  1854  006D72  8E2A               	bsf	(___fltol@f1+2)^0,7,c
  1855  006D74  0EFF               	movlw	255
  1856  006D76  1628               	andwf	___fltol@f1^0,f,c
  1857  006D78  0EFF               	movlw	255
  1858  006D7A  1629               	andwf	(___fltol@f1+1)^0,f,c
  1859  006D7C  0EFF               	movlw	255
  1860  006D7E  162A               	andwf	(___fltol@f1+2)^0,f,c
  1861  006D80  0E00               	movlw	0
  1862  006D82  162B               	andwf	(___fltol@f1+3)^0,f,c
  1863  006D84  0E96               	movlw	150
  1864  006D86  5E31               	subwf	___fltol@exp1^0,f,c
  1865  006D88  BE31               	btfsc	___fltol@exp1^0,7,c
  1866  006D8A  EFCB  F036         	goto	u1520
  1867  006D8E  EFC9  F036         	goto	u1521
  1868  006D92                     u1521:
  1869  006D92  EFE1  F036         	goto	l1597
  1870  006D96                     u1520:
  1871  006D96  5031               	movf	___fltol@exp1^0,w,c
  1872  006D98  0A80               	xorlw	128
  1873  006D9A  0F97               	addlw	151
  1874  006D9C  B0D8               	btfsc	status,0,c
  1875  006D9E  EFD3  F036         	goto	u1531
  1876  006DA2  EFD5  F036         	goto	u1530
  1877  006DA6                     u1531:
  1878  006DA6  EFD7  F036         	goto	l1593
  1879  006DAA                     u1530:
  1880  006DAA  EF9A  F036         	goto	l1573
  1881  006DAE                     l1593:
  1882  006DAE  90D8               	bcf	status,0,c
  1883  006DB0  322B               	rrcf	(___fltol@f1+3)^0,f,c
  1884  006DB2  322A               	rrcf	(___fltol@f1+2)^0,f,c
  1885  006DB4  3229               	rrcf	(___fltol@f1+1)^0,f,c
  1886  006DB6  3228               	rrcf	___fltol@f1^0,f,c
  1887  006DB8  3E31               	incfsz	___fltol@exp1^0,f,c
  1888  006DBA  EFD7  F036         	goto	l1593
  1889  006DBE  EFF9  F036         	goto	l1607
  1890  006DC2                     l1597:
  1891  006DC2  0E1F               	movlw	31
  1892  006DC4  6431               	cpfsgt	___fltol@exp1^0,c
  1893  006DC6  EFE7  F036         	goto	u1541
  1894  006DCA  EFE9  F036         	goto	u1540
  1895  006DCE                     u1541:
  1896  006DCE  EFF1  F036         	goto	l1605
  1897  006DD2                     u1540:
  1898  006DD2  EF9A  F036         	goto	l1573
  1899  006DD6                     l1603:
  1900  006DD6  90D8               	bcf	status,0,c
  1901  006DD8  3628               	rlcf	___fltol@f1^0,f,c
  1902  006DDA  3629               	rlcf	(___fltol@f1+1)^0,f,c
  1903  006DDC  362A               	rlcf	(___fltol@f1+2)^0,f,c
  1904  006DDE  362B               	rlcf	(___fltol@f1+3)^0,f,c
  1905  006DE0  0631               	decf	___fltol@exp1^0,f,c
  1906  006DE2                     l1605:
  1907  006DE2  5031               	movf	___fltol@exp1^0,w,c
  1908  006DE4  A4D8               	btfss	status,2,c
  1909  006DE6  EFF7  F036         	goto	u1551
  1910  006DEA  EFF9  F036         	goto	u1550
  1911  006DEE                     u1551:
  1912  006DEE  EFEB  F036         	goto	l1603
  1913  006DF2                     u1550:
  1914  006DF2                     l1607:
  1915  006DF2  5030               	movf	___fltol@sign1^0,w,c
  1916  006DF4  B4D8               	btfsc	status,2,c
  1917  006DF6  EFFF  F036         	goto	u1561
  1918  006DFA  EF01  F037         	goto	u1560
  1919  006DFE                     u1561:
  1920  006DFE  EF09  F037         	goto	l1611
  1921  006E02                     u1560:
  1922  006E02  1E2B               	comf	(___fltol@f1+3)^0,f,c
  1923  006E04  1E2A               	comf	(___fltol@f1+2)^0,f,c
  1924  006E06  1E29               	comf	(___fltol@f1+1)^0,f,c
  1925  006E08  6C28               	negf	___fltol@f1^0,c
  1926  006E0A  0E00               	movlw	0
  1927  006E0C  2229               	addwfc	(___fltol@f1+1)^0,f,c
  1928  006E0E  222A               	addwfc	(___fltol@f1+2)^0,f,c
  1929  006E10  222B               	addwfc	(___fltol@f1+3)^0,f,c
  1930  006E12                     l1611:
  1931  006E12  C028  F028         	movff	___fltol@f1,?___fltol
  1932  006E16  C029  F029         	movff	___fltol@f1+1,?___fltol+1
  1933  006E1A  C02A  F02A         	movff	___fltol@f1+2,?___fltol+2
  1934  006E1E  C02B  F02B         	movff	___fltol@f1+3,?___fltol+3
  1935  006E22                     l369:
  1936  006E22  0012               	return		;funcret
  1937  006E24                     __end_of___fltol:
  1938                           	callstack 0
  1939                           
  1940 ;; *************** function ___flsub *****************
  1941 ;; Defined at:
  1942 ;;		line 245 in file "C:\Program Files\Microchip\xc8\v2.32\pic\sources\c99\common\sprcadd.c"
  1943 ;; Parameters:    Size  Location     Type
  1944 ;;  b               4   39[COMRAM] long 
  1945 ;;  a               4   43[COMRAM] long 
  1946 ;; Auto vars:     Size  Location     Type
  1947 ;;		None
  1948 ;; Return value:  Size  Location     Type
  1949 ;;                  4   39[COMRAM] long 
  1950 ;; Registers used:
  1951 ;;		wreg, status,2, status,0, cstack
  1952 ;; Tracked objects:
  1953 ;;		On entry : 0/0
  1954 ;;		On exit  : 0/0
  1955 ;;		Unchanged: 0/0
  1956 ;; Data sizes:     COMRAM   BANK0   BANK1   BANK2   BANK3   BANK4   BANK5   BANK6   BANK7
  1957 ;;      Params:         8       0       0       0       0       0       0       0       0
  1958 ;;      Locals:         0       0       0       0       0       0       0       0       0
  1959 ;;      Temps:          0       0       0       0       0       0       0       0       0
  1960 ;;      Totals:         8       0       0       0       0       0       0       0       0
  1961 ;;Total ram usage:        8 bytes
  1962 ;; Hardware stack levels used: 1
  1963 ;; Hardware stack levels required when called: 1
  1964 ;; This function calls:
  1965 ;;		___fladd
  1966 ;; This function is called by:
  1967 ;;		_tocar_nota
  1968 ;;		_silencio
  1969 ;; This function uses a non-reentrant model
  1970 ;;
  1971                           
  1972                           	psect	text7
  1973  006CD8                     __ptext7:
  1974                           	callstack 0
  1975  006CD8                     ___flsub:
  1976                           	callstack 27
  1977  006CD8  0E00               	movlw	0
  1978  006CDA  1A2C               	xorwf	___flsub@a^0,f,c
  1979  006CDC  0E00               	movlw	0
  1980  006CDE  1A2D               	xorwf	(___flsub@a+1)^0,f,c
  1981  006CE0  0E00               	movlw	0
  1982  006CE2  1A2E               	xorwf	(___flsub@a+2)^0,f,c
  1983  006CE4  0E80               	movlw	128
  1984  006CE6  1A2F               	xorwf	(___flsub@a+3)^0,f,c
  1985  006CE8  C028  F001         	movff	___flsub@b,___fladd@b
  1986  006CEC  C029  F002         	movff	___flsub@b+1,___fladd@b+1
  1987  006CF0  C02A  F003         	movff	___flsub@b+2,___fladd@b+2
  1988  006CF4  C02B  F004         	movff	___flsub@b+3,___fladd@b+3
  1989  006CF8  C02C  F005         	movff	___flsub@a,___fladd@a
  1990  006CFC  C02D  F006         	movff	___flsub@a+1,___fladd@a+1
  1991  006D00  C02E  F007         	movff	___flsub@a+2,___fladd@a+2
  1992  006D04  C02F  F008         	movff	___flsub@a+3,___fladd@a+3
  1993  006D08  EC29  F03B         	call	___fladd	;wreg free
  1994  006D0C  C001  F028         	movff	?___fladd,?___flsub
  1995  006D10  C002  F029         	movff	?___fladd+1,?___flsub+1
  1996  006D14  C003  F02A         	movff	?___fladd+2,?___flsub+2
  1997  006D18  C004  F02B         	movff	?___fladd+3,?___flsub+3
  1998  006D1C  0012               	return		;funcret
  1999  006D1E                     __end_of___flsub:
  2000                           	callstack 0
  2001                           
  2002 ;; *************** function ___fladd *****************
  2003 ;; Defined at:
  2004 ;;		line 10 in file "C:\Program Files\Microchip\xc8\v2.32\pic\sources\c99\common\sprcadd.c"
  2005 ;; Parameters:    Size  Location     Type
  2006 ;;  b               4    0[COMRAM] long 
  2007 ;;  a               4    4[COMRAM] long 
  2008 ;; Auto vars:     Size  Location     Type
  2009 ;;  grs             1   15[COMRAM] unsigned char 
  2010 ;;  bexp            1   14[COMRAM] unsigned char 
  2011 ;;  aexp            1   13[COMRAM] unsigned char 
  2012 ;;  signs           1   12[COMRAM] unsigned char 
  2013 ;; Return value:  Size  Location     Type
  2014 ;;                  4    0[COMRAM] unsigned char 
  2015 ;; Registers used:
  2016 ;;		wreg, status,2, status,0
  2017 ;; Tracked objects:
  2018 ;;		On entry : 0/0
  2019 ;;		On exit  : 0/0
  2020 ;;		Unchanged: 0/0
  2021 ;; Data sizes:     COMRAM   BANK0   BANK1   BANK2   BANK3   BANK4   BANK5   BANK6   BANK7
  2022 ;;      Params:         8       0       0       0       0       0       0       0       0
  2023 ;;      Locals:         4       0       0       0       0       0       0       0       0
  2024 ;;      Temps:          4       0       0       0       0       0       0       0       0
  2025 ;;      Totals:        16       0       0       0       0       0       0       0       0
  2026 ;;Total ram usage:       16 bytes
  2027 ;; Hardware stack levels used: 1
  2028 ;; This function calls:
  2029 ;;		Nothing
  2030 ;; This function is called by:
  2031 ;;		___flsub
  2032 ;; This function uses a non-reentrant model
  2033 ;;
  2034                           
  2035                           	psect	text8
  2036  007652                     __ptext8:
  2037                           	callstack 0
  2038  007652                     ___fladd:
  2039                           	callstack 27
  2040  007652  5004               	movf	(___fladd@b+3)^0,w,c
  2041  007654  0B80               	andlw	128
  2042  007656  6E0D               	movwf	___fladd@signs^0,c
  2043  007658  5004               	movf	(___fladd@b+3)^0,w,c
  2044  00765A  2404               	addwf	(___fladd@b+3)^0,w,c
  2045  00765C  6E0F               	movwf	___fladd@bexp^0,c
  2046  00765E  AE03               	btfss	(___fladd@b+2)^0,7,c
  2047  007660  EF34  F03B         	goto	u881
  2048  007664  EF36  F03B         	goto	u880
  2049  007668                     u881:
  2050  007668  EF37  F03B         	goto	l1231
  2051  00766C                     u880:
  2052  00766C  800F               	bsf	___fladd@bexp^0,0,c
  2053  00766E                     l1231:
  2054  00766E  500F               	movf	___fladd@bexp^0,w,c
  2055  007670  B4D8               	btfsc	status,2,c
  2056  007672  EF3D  F03B         	goto	u891
  2057  007676  EF3F  F03B         	goto	u890
  2058  00767A                     u891:
  2059  00767A  EF54  F03B         	goto	l1241
  2060  00767E                     u890:
  2061  00767E  280F               	incf	___fladd@bexp^0,w,c
  2062  007680  A4D8               	btfss	status,2,c
  2063  007682  EF45  F03B         	goto	u901
  2064  007686  EF47  F03B         	goto	u900
  2065  00768A                     u901:
  2066  00768A  EF4F  F03B         	goto	l1237
  2067  00768E                     u900:
  2068  00768E  0E00               	movlw	0
  2069  007690  6E01               	movwf	___fladd@b^0,c
  2070  007692  0E00               	movlw	0
  2071  007694  6E02               	movwf	(___fladd@b+1)^0,c
  2072  007696  0E00               	movlw	0
  2073  007698  6E03               	movwf	(___fladd@b+2)^0,c
  2074  00769A  0E00               	movlw	0
  2075  00769C  6E04               	movwf	(___fladd@b+3)^0,c
  2076  00769E                     l1237:
  2077  00769E  8E03               	bsf	(___fladd@b+2)^0,7,c
  2078  0076A0  0E00               	movlw	0
  2079  0076A2  6E04               	movwf	(___fladd@b+3)^0,c
  2080  0076A4  EF5C  F03B         	goto	l1243
  2081  0076A8                     l1241:
  2082  0076A8  0E00               	movlw	0
  2083  0076AA  6E01               	movwf	___fladd@b^0,c
  2084  0076AC  0E00               	movlw	0
  2085  0076AE  6E02               	movwf	(___fladd@b+1)^0,c
  2086  0076B0  0E00               	movlw	0
  2087  0076B2  6E03               	movwf	(___fladd@b+2)^0,c
  2088  0076B4  0E00               	movlw	0
  2089  0076B6  6E04               	movwf	(___fladd@b+3)^0,c
  2090  0076B8                     l1243:
  2091  0076B8  5008               	movf	(___fladd@a+3)^0,w,c
  2092  0076BA  0B80               	andlw	128
  2093  0076BC  6E0E               	movwf	___fladd@aexp^0,c
  2094  0076BE  500D               	movf	___fladd@signs^0,w,c
  2095  0076C0  180E               	xorwf	___fladd@aexp^0,w,c
  2096  0076C2  B4D8               	btfsc	status,2,c
  2097  0076C4  EF66  F03B         	goto	u911
  2098  0076C8  EF68  F03B         	goto	u910
  2099  0076CC                     u911:
  2100  0076CC  EF69  F03B         	goto	l1249
  2101  0076D0                     u910:
  2102  0076D0  8C0D               	bsf	___fladd@signs^0,6,c
  2103  0076D2                     l1249:
  2104  0076D2  5008               	movf	(___fladd@a+3)^0,w,c
  2105  0076D4  2408               	addwf	(___fladd@a+3)^0,w,c
  2106  0076D6  6E0E               	movwf	___fladd@aexp^0,c
  2107  0076D8  AE07               	btfss	(___fladd@a+2)^0,7,c
  2108  0076DA  EF71  F03B         	goto	u921
  2109  0076DE  EF73  F03B         	goto	u920
  2110  0076E2                     u921:
  2111  0076E2  EF74  F03B         	goto	l1255
  2112  0076E6                     u920:
  2113  0076E6  800E               	bsf	___fladd@aexp^0,0,c
  2114  0076E8                     l1255:
  2115  0076E8  500E               	movf	___fladd@aexp^0,w,c
  2116  0076EA  B4D8               	btfsc	status,2,c
  2117  0076EC  EF7A  F03B         	goto	u931
  2118  0076F0  EF7C  F03B         	goto	u930
  2119  0076F4                     u931:
  2120  0076F4  EF91  F03B         	goto	l1265
  2121  0076F8                     u930:
  2122  0076F8  280E               	incf	___fladd@aexp^0,w,c
  2123  0076FA  A4D8               	btfss	status,2,c
  2124  0076FC  EF82  F03B         	goto	u941
  2125  007700  EF84  F03B         	goto	u940
  2126  007704                     u941:
  2127  007704  EF8C  F03B         	goto	l1261
  2128  007708                     u940:
  2129  007708  0E00               	movlw	0
  2130  00770A  6E05               	movwf	___fladd@a^0,c
  2131  00770C  0E00               	movlw	0
  2132  00770E  6E06               	movwf	(___fladd@a+1)^0,c
  2133  007710  0E00               	movlw	0
  2134  007712  6E07               	movwf	(___fladd@a+2)^0,c
  2135  007714  0E00               	movlw	0
  2136  007716  6E08               	movwf	(___fladd@a+3)^0,c
  2137  007718                     l1261:
  2138  007718  8E07               	bsf	(___fladd@a+2)^0,7,c
  2139  00771A  0E00               	movlw	0
  2140  00771C  6E08               	movwf	(___fladd@a+3)^0,c
  2141  00771E  EF99  F03B         	goto	l1267
  2142  007722                     l1265:
  2143  007722  0E00               	movlw	0
  2144  007724  6E05               	movwf	___fladd@a^0,c
  2145  007726  0E00               	movlw	0
  2146  007728  6E06               	movwf	(___fladd@a+1)^0,c
  2147  00772A  0E00               	movlw	0
  2148  00772C  6E07               	movwf	(___fladd@a+2)^0,c
  2149  00772E  0E00               	movlw	0
  2150  007730  6E08               	movwf	(___fladd@a+3)^0,c
  2151  007732                     l1267:
  2152  007732  500F               	movf	___fladd@bexp^0,w,c
  2153  007734  5C0E               	subwf	___fladd@aexp^0,w,c
  2154  007736  B0D8               	btfsc	status,0,c
  2155  007738  EFA0  F03B         	goto	u951
  2156  00773C  EFA2  F03B         	goto	u950
  2157  007740                     u951:
  2158  007740  EFC9  F03B         	goto	l1303
  2159  007744                     u950:
  2160  007744  AC0D               	btfss	___fladd@signs^0,6,c
  2161  007746  EFA7  F03B         	goto	u961
  2162  00774A  EFA9  F03B         	goto	u960
  2163  00774E                     u961:
  2164  00774E  EFAB  F03B         	goto	l1273
  2165  007752                     u960:
  2166  007752  0E80               	movlw	128
  2167  007754  1A0D               	xorwf	___fladd@signs^0,f,c
  2168  007756                     l1273:
  2169  007756  C00F  F010         	movff	___fladd@bexp,___fladd@grs
  2170  00775A  C00E  F00F         	movff	___fladd@aexp,___fladd@bexp
  2171  00775E  C010  F00E         	movff	___fladd@grs,___fladd@aexp
  2172  007762  C001  F010         	movff	___fladd@b,___fladd@grs
  2173  007766  C005  F001         	movff	___fladd@a,___fladd@b
  2174  00776A  C010  F005         	movff	___fladd@grs,___fladd@a
  2175  00776E  C002  F010         	movff	___fladd@b+1,___fladd@grs
  2176  007772  C006  F002         	movff	___fladd@a+1,___fladd@b+1
  2177  007776  C010  F006         	movff	___fladd@grs,___fladd@a+1
  2178  00777A  C003  F010         	movff	___fladd@b+2,___fladd@grs
  2179  00777E  C007  F003         	movff	___fladd@a+2,___fladd@b+2
  2180  007782  C010  F007         	movff	___fladd@grs,___fladd@a+2
  2181  007786  C004  F010         	movff	___fladd@b+3,___fladd@grs
  2182  00778A  C008  F004         	movff	___fladd@a+3,___fladd@b+3
  2183  00778E  C010  F008         	movff	___fladd@grs,___fladd@a+3
  2184  007792                     l1303:
  2185  007792  0E00               	movlw	0
  2186  007794  6E10               	movwf	___fladd@grs^0,c
  2187  007796  500F               	movf	___fladd@bexp^0,w,c
  2188  007798  C00E  F009         	movff	___fladd@aexp,??___fladd
  2189  00779C  6A0A               	clrf	(??___fladd+1)^0,c
  2190  00779E  5E09               	subwf	??___fladd^0,f,c
  2191  0077A0  0E00               	movlw	0
  2192  0077A2  5A0A               	subwfb	(??___fladd+1)^0,f,c
  2193  0077A4  BE0A               	btfsc	(??___fladd+1)^0,7,c
  2194  0077A6  EFDE  F03B         	goto	u971
  2195  0077AA  500A               	movf	(??___fladd+1)^0,w,c
  2196  0077AC  E109               	bnz	u970
  2197  0077AE  0E1A               	movlw	26
  2198  0077B0  5C09               	subwf	??___fladd^0,w,c
  2199  0077B2  A0D8               	btfss	status,0,c
  2200  0077B4  EFDE  F03B         	goto	u971
  2201  0077B8  EFE0  F03B         	goto	u970
  2202  0077BC                     u971:
  2203  0077BC  EF17  F03C         	goto	l601
  2204  0077C0                     u970:
  2205  0077C0  5001               	movf	___fladd@b^0,w,c
  2206  0077C2  1002               	iorwf	(___fladd@b+1)^0,w,c
  2207  0077C4  1003               	iorwf	(___fladd@b+2)^0,w,c
  2208  0077C6  1004               	iorwf	(___fladd@b+3)^0,w,c
  2209  0077C8  A4D8               	btfss	status,2,c
  2210  0077CA  EFE9  F03B         	goto	u981
  2211  0077CE  EFEC  F03B         	goto	u980
  2212  0077D2                     u981:
  2213  0077D2  0E01               	movlw	1
  2214  0077D4  EFED  F03B         	goto	u990
  2215  0077D8                     u980:
  2216  0077D8  0E00               	movlw	0
  2217  0077DA                     u990:
  2218  0077DA  6E10               	movwf	___fladd@grs^0,c
  2219  0077DC  0E00               	movlw	0
  2220  0077DE  6E01               	movwf	___fladd@b^0,c
  2221  0077E0  0E00               	movlw	0
  2222  0077E2  6E02               	movwf	(___fladd@b+1)^0,c
  2223  0077E4  0E00               	movlw	0
  2224  0077E6  6E03               	movwf	(___fladd@b+2)^0,c
  2225  0077E8  0E00               	movlw	0
  2226  0077EA  6E04               	movwf	(___fladd@b+3)^0,c
  2227  0077EC  C00E  F00F         	movff	___fladd@aexp,___fladd@bexp
  2228  0077F0  EF20  F03C         	goto	l600
  2229  0077F4                     l602:
  2230  0077F4  A010               	btfss	___fladd@grs^0,0,c
  2231  0077F6  EFFF  F03B         	goto	u1001
  2232  0077FA  EF01  F03C         	goto	u1000
  2233  0077FE                     u1001:
  2234  0077FE  EF07  F03C         	goto	l1315
  2235  007802                     u1000:
  2236  007802  90D8               	bcf	status,0,c
  2237  007804  3010               	rrcf	___fladd@grs^0,w,c
  2238  007806  0901               	iorlw	1
  2239  007808  6E10               	movwf	___fladd@grs^0,c
  2240  00780A  EF09  F03C         	goto	l1317
  2241  00780E                     l1315:
  2242  00780E  90D8               	bcf	status,0,c
  2243  007810  3210               	rrcf	___fladd@grs^0,f,c
  2244  007812                     l1317:
  2245  007812  A001               	btfss	___fladd@b^0,0,c
  2246  007814  EF0E  F03C         	goto	u1011
  2247  007818  EF10  F03C         	goto	u1010
  2248  00781C                     u1011:
  2249  00781C  EF11  F03C         	goto	l1321
  2250  007820                     u1010:
  2251  007820  8E10               	bsf	___fladd@grs^0,7,c
  2252  007822                     l1321:
  2253  007822  3404               	rlcf	(___fladd@b+3)^0,w,c
  2254  007824  3204               	rrcf	(___fladd@b+3)^0,f,c
  2255  007826  3203               	rrcf	(___fladd@b+2)^0,f,c
  2256  007828  3202               	rrcf	(___fladd@b+1)^0,f,c
  2257  00782A  3201               	rrcf	___fladd@b^0,f,c
  2258  00782C  2A0F               	incf	___fladd@bexp^0,f,c
  2259  00782E                     l601:
  2260  00782E  500E               	movf	___fladd@aexp^0,w,c
  2261  007830  5C0F               	subwf	___fladd@bexp^0,w,c
  2262  007832  A0D8               	btfss	status,0,c
  2263  007834  EF1E  F03C         	goto	u1021
  2264  007838  EF20  F03C         	goto	u1020
  2265  00783C                     u1021:
  2266  00783C  EFFA  F03B         	goto	l602
  2267  007840                     u1020:
  2268  007840                     l600:
  2269  007840  BC0D               	btfsc	___fladd@signs^0,6,c
  2270  007842  EF25  F03C         	goto	u1031
  2271  007846  EF27  F03C         	goto	u1030
  2272  00784A                     u1031:
  2273  00784A  EF67  F03C         	goto	l1349
  2274  00784E                     u1030:
  2275  00784E  500F               	movf	___fladd@bexp^0,w,c
  2276  007850  A4D8               	btfss	status,2,c
  2277  007852  EF2D  F03C         	goto	u1041
  2278  007856  EF2F  F03C         	goto	u1040
  2279  00785A                     u1041:
  2280  00785A  EF39  F03C         	goto	l1331
  2281  00785E                     u1040:
  2282  00785E  0E00               	movlw	0
  2283  007860  6E01               	movwf	?___fladd^0,c
  2284  007862  0E00               	movlw	0
  2285  007864  6E02               	movwf	(?___fladd+1)^0,c
  2286  007866  0E00               	movlw	0
  2287  007868  6E03               	movwf	(?___fladd+2)^0,c
  2288  00786A  0E00               	movlw	0
  2289  00786C  6E04               	movwf	(?___fladd+3)^0,c
  2290  00786E  EF88  F03D         	goto	l609
  2291  007872                     l1331:
  2292  007872  5005               	movf	___fladd@a^0,w,c
  2293  007874  2601               	addwf	___fladd@b^0,f,c
  2294  007876  5006               	movf	(___fladd@a+1)^0,w,c
  2295  007878  2202               	addwfc	(___fladd@b+1)^0,f,c
  2296  00787A  5007               	movf	(___fladd@a+2)^0,w,c
  2297  00787C  2203               	addwfc	(___fladd@b+2)^0,f,c
  2298  00787E  5008               	movf	(___fladd@a+3)^0,w,c
  2299  007880  2204               	addwfc	(___fladd@b+3)^0,f,c
  2300  007882  A004               	btfss	(___fladd@b+3)^0,0,c
  2301  007884  EF46  F03C         	goto	u1051
  2302  007888  EF48  F03C         	goto	u1050
  2303  00788C                     u1051:
  2304  00788C  EFF4  F03C         	goto	l1385
  2305  007890                     u1050:
  2306  007890  A010               	btfss	___fladd@grs^0,0,c
  2307  007892  EF4D  F03C         	goto	u1061
  2308  007896  EF4F  F03C         	goto	u1060
  2309  00789A                     u1061:
  2310  00789A  EF55  F03C         	goto	l1339
  2311  00789E                     u1060:
  2312  00789E  90D8               	bcf	status,0,c
  2313  0078A0  3010               	rrcf	___fladd@grs^0,w,c
  2314  0078A2  0901               	iorlw	1
  2315  0078A4  6E10               	movwf	___fladd@grs^0,c
  2316  0078A6  EF57  F03C         	goto	l1341
  2317  0078AA                     l1339:
  2318  0078AA  90D8               	bcf	status,0,c
  2319  0078AC  3210               	rrcf	___fladd@grs^0,f,c
  2320  0078AE                     l1341:
  2321  0078AE  A001               	btfss	___fladd@b^0,0,c
  2322  0078B0  EF5C  F03C         	goto	u1071
  2323  0078B4  EF5E  F03C         	goto	u1070
  2324  0078B8                     u1071:
  2325  0078B8  EF5F  F03C         	goto	l1345
  2326  0078BC                     u1070:
  2327  0078BC  8E10               	bsf	___fladd@grs^0,7,c
  2328  0078BE                     l1345:
  2329  0078BE  3404               	rlcf	(___fladd@b+3)^0,w,c
  2330  0078C0  3204               	rrcf	(___fladd@b+3)^0,f,c
  2331  0078C2  3203               	rrcf	(___fladd@b+2)^0,f,c
  2332  0078C4  3202               	rrcf	(___fladd@b+1)^0,f,c
  2333  0078C6  3201               	rrcf	___fladd@b^0,f,c
  2334  0078C8  2A0F               	incf	___fladd@bexp^0,f,c
  2335  0078CA  EFF4  F03C         	goto	l1385
  2336  0078CE                     l1349:
  2337  0078CE  5005               	movf	___fladd@a^0,w,c
  2338  0078D0  5C01               	subwf	___fladd@b^0,w,c
  2339  0078D2  5006               	movf	(___fladd@a+1)^0,w,c
  2340  0078D4  5802               	subwfb	(___fladd@b+1)^0,w,c
  2341  0078D6  5007               	movf	(___fladd@a+2)^0,w,c
  2342  0078D8  5803               	subwfb	(___fladd@b+2)^0,w,c
  2343  0078DA  5004               	movf	(___fladd@b+3)^0,w,c
  2344  0078DC  0A80               	xorlw	128
  2345  0078DE  6E09               	movwf	??___fladd^0,c
  2346  0078E0  5008               	movf	(___fladd@a+3)^0,w,c
  2347  0078E2  0A80               	xorlw	128
  2348  0078E4  5809               	subwfb	??___fladd^0,w,c
  2349  0078E6  B0D8               	btfsc	status,0,c
  2350  0078E8  EF78  F03C         	goto	u1081
  2351  0078EC  EF7A  F03C         	goto	u1080
  2352  0078F0                     u1081:
  2353  0078F0  EFA5  F03C         	goto	l1359
  2354  0078F4                     u1080:
  2355  0078F4  5001               	movf	___fladd@b^0,w,c
  2356  0078F6  5C05               	subwf	___fladd@a^0,w,c
  2357  0078F8  6E09               	movwf	??___fladd^0,c
  2358  0078FA  5002               	movf	(___fladd@b+1)^0,w,c
  2359  0078FC  5806               	subwfb	(___fladd@a+1)^0,w,c
  2360  0078FE  6E0A               	movwf	(??___fladd+1)^0,c
  2361  007900  5003               	movf	(___fladd@b+2)^0,w,c
  2362  007902  5807               	subwfb	(___fladd@a+2)^0,w,c
  2363  007904  6E0B               	movwf	(??___fladd+2)^0,c
  2364  007906  5004               	movf	(___fladd@b+3)^0,w,c
  2365  007908  5808               	subwfb	(___fladd@a+3)^0,w,c
  2366  00790A  6E0C               	movwf	(??___fladd+3)^0,c
  2367  00790C  0EFF               	movlw	255
  2368  00790E  2409               	addwf	??___fladd^0,w,c
  2369  007910  6E01               	movwf	___fladd@b^0,c
  2370  007912  0EFF               	movlw	255
  2371  007914  200A               	addwfc	(??___fladd+1)^0,w,c
  2372  007916  6E02               	movwf	(___fladd@b+1)^0,c
  2373  007918  0EFF               	movlw	255
  2374  00791A  200B               	addwfc	(??___fladd+2)^0,w,c
  2375  00791C  6E03               	movwf	(___fladd@b+2)^0,c
  2376  00791E  0EFF               	movlw	255
  2377  007920  200C               	addwfc	(??___fladd+3)^0,w,c
  2378  007922  6E04               	movwf	(___fladd@b+3)^0,c
  2379  007924  0E80               	movlw	128
  2380  007926  1A0D               	xorwf	___fladd@signs^0,f,c
  2381  007928  6C10               	negf	___fladd@grs^0,c
  2382  00792A  5010               	movf	___fladd@grs^0,w,c
  2383  00792C  A4D8               	btfss	status,2,c
  2384  00792E  EF9B  F03C         	goto	u1091
  2385  007932  EF9D  F03C         	goto	u1090
  2386  007936                     u1091:
  2387  007936  EFAD  F03C         	goto	l617
  2388  00793A                     u1090:
  2389  00793A  0E01               	movlw	1
  2390  00793C  2601               	addwf	___fladd@b^0,f,c
  2391  00793E  0E00               	movlw	0
  2392  007940  2202               	addwfc	(___fladd@b+1)^0,f,c
  2393  007942  2203               	addwfc	(___fladd@b+2)^0,f,c
  2394  007944  2204               	addwfc	(___fladd@b+3)^0,f,c
  2395  007946  EFAD  F03C         	goto	l617
  2396  00794A                     l1359:
  2397  00794A  5005               	movf	___fladd@a^0,w,c
  2398  00794C  5E01               	subwf	___fladd@b^0,f,c
  2399  00794E  5006               	movf	(___fladd@a+1)^0,w,c
  2400  007950  5A02               	subwfb	(___fladd@b+1)^0,f,c
  2401  007952  5007               	movf	(___fladd@a+2)^0,w,c
  2402  007954  5A03               	subwfb	(___fladd@b+2)^0,f,c
  2403  007956  5008               	movf	(___fladd@a+3)^0,w,c
  2404  007958  5A04               	subwfb	(___fladd@b+3)^0,f,c
  2405  00795A                     l617:
  2406  00795A  5001               	movf	___fladd@b^0,w,c
  2407  00795C  1002               	iorwf	(___fladd@b+1)^0,w,c
  2408  00795E  1003               	iorwf	(___fladd@b+2)^0,w,c
  2409  007960  1004               	iorwf	(___fladd@b+3)^0,w,c
  2410  007962  A4D8               	btfss	status,2,c
  2411  007964  EFB6  F03C         	goto	u1101
  2412  007968  EFB8  F03C         	goto	u1100
  2413  00796C                     u1101:
  2414  00796C  EFED  F03C         	goto	l1383
  2415  007970                     u1100:
  2416  007970  5010               	movf	___fladd@grs^0,w,c
  2417  007972  A4D8               	btfss	status,2,c
  2418  007974  EFBE  F03C         	goto	u1111
  2419  007978  EFC0  F03C         	goto	u1110
  2420  00797C                     u1111:
  2421  00797C  EFED  F03C         	goto	l1383
  2422  007980                     u1110:
  2423  007980  0E00               	movlw	0
  2424  007982  6E01               	movwf	?___fladd^0,c
  2425  007984  0E00               	movlw	0
  2426  007986  6E02               	movwf	(?___fladd+1)^0,c
  2427  007988  0E00               	movlw	0
  2428  00798A  6E03               	movwf	(?___fladd+2)^0,c
  2429  00798C  0E00               	movlw	0
  2430  00798E  6E04               	movwf	(?___fladd+3)^0,c
  2431  007990  EF88  F03D         	goto	l609
  2432  007994                     l1367:
  2433  007994  90D8               	bcf	status,0,c
  2434  007996  3601               	rlcf	___fladd@b^0,f,c
  2435  007998  3602               	rlcf	(___fladd@b+1)^0,f,c
  2436  00799A  3603               	rlcf	(___fladd@b+2)^0,f,c
  2437  00799C  3604               	rlcf	(___fladd@b+3)^0,f,c
  2438  00799E  AE10               	btfss	___fladd@grs^0,7,c
  2439  0079A0  EFD4  F03C         	goto	u1121
  2440  0079A4  EFD6  F03C         	goto	u1120
  2441  0079A8                     u1121:
  2442  0079A8  EFD7  F03C         	goto	l1373
  2443  0079AC                     u1120:
  2444  0079AC  8001               	bsf	___fladd@b^0,0,c
  2445  0079AE                     l1373:
  2446  0079AE  A010               	btfss	___fladd@grs^0,0,c
  2447  0079B0  EFDC  F03C         	goto	u1131
  2448  0079B4  EFDE  F03C         	goto	u1130
  2449  0079B8                     u1131:
  2450  0079B8  EFE2  F03C         	goto	l1377
  2451  0079BC                     u1130:
  2452  0079BC  80D8               	bsf	status,0,c
  2453  0079BE  3610               	rlcf	___fladd@grs^0,f,c
  2454  0079C0  EFE4  F03C         	goto	l1379
  2455  0079C4                     l1377:
  2456  0079C4  90D8               	bcf	status,0,c
  2457  0079C6  3610               	rlcf	___fladd@grs^0,f,c
  2458  0079C8                     l1379:
  2459  0079C8  500F               	movf	___fladd@bexp^0,w,c
  2460  0079CA  B4D8               	btfsc	status,2,c
  2461  0079CC  EFEA  F03C         	goto	u1141
  2462  0079D0  EFEC  F03C         	goto	u1140
  2463  0079D4                     u1141:
  2464  0079D4  EFED  F03C         	goto	l1383
  2465  0079D8                     u1140:
  2466  0079D8  060F               	decf	___fladd@bexp^0,f,c
  2467  0079DA                     l1383:
  2468  0079DA  AE03               	btfss	(___fladd@b+2)^0,7,c
  2469  0079DC  EFF2  F03C         	goto	u1151
  2470  0079E0  EFF4  F03C         	goto	u1150
  2471  0079E4                     u1151:
  2472  0079E4  EFCA  F03C         	goto	l1367
  2473  0079E8                     u1150:
  2474  0079E8                     l1385:
  2475  0079E8  0E00               	movlw	0
  2476  0079EA  6E0E               	movwf	___fladd@aexp^0,c
  2477  0079EC  AE10               	btfss	___fladd@grs^0,7,c
  2478  0079EE  EFFB  F03C         	goto	u1161
  2479  0079F2  EFFD  F03C         	goto	u1160
  2480  0079F6                     u1161:
  2481  0079F6  EF15  F03D         	goto	l626
  2482  0079FA                     u1160:
  2483  0079FA  C010  F009         	movff	___fladd@grs,??___fladd
  2484  0079FE  0E7F               	movlw	127
  2485  007A00  1609               	andwf	??___fladd^0,f,c
  2486  007A02  B4D8               	btfsc	status,2,c
  2487  007A04  EF06  F03D         	goto	u1171
  2488  007A08  EF08  F03D         	goto	u1170
  2489  007A0C                     u1171:
  2490  007A0C  EF0C  F03D         	goto	l627
  2491  007A10                     u1170:
  2492  007A10                     l1391:
  2493  007A10  0E01               	movlw	1
  2494  007A12  6E0E               	movwf	___fladd@aexp^0,c
  2495  007A14  EF15  F03D         	goto	l626
  2496  007A18                     l627:
  2497  007A18  A001               	btfss	___fladd@b^0,0,c
  2498  007A1A  EF11  F03D         	goto	u1181
  2499  007A1E  EF13  F03D         	goto	u1180
  2500  007A22                     u1181:
  2501  007A22  EF15  F03D         	goto	l626
  2502  007A26                     u1180:
  2503  007A26  EF08  F03D         	goto	l1391
  2504  007A2A                     l626:
  2505  007A2A  500E               	movf	___fladd@aexp^0,w,c
  2506  007A2C  B4D8               	btfsc	status,2,c
  2507  007A2E  EF1B  F03D         	goto	u1191
  2508  007A32  EF1D  F03D         	goto	u1190
  2509  007A36                     u1191:
  2510  007A36  EF48  F03D         	goto	l1403
  2511  007A3A                     u1190:
  2512  007A3A  0E01               	movlw	1
  2513  007A3C  2601               	addwf	___fladd@b^0,f,c
  2514  007A3E  0E00               	movlw	0
  2515  007A40  2202               	addwfc	(___fladd@b+1)^0,f,c
  2516  007A42  2203               	addwfc	(___fladd@b+2)^0,f,c
  2517  007A44  2204               	addwfc	(___fladd@b+3)^0,f,c
  2518  007A46  A004               	btfss	(___fladd@b+3)^0,0,c
  2519  007A48  EF28  F03D         	goto	u1201
  2520  007A4C  EF2A  F03D         	goto	u1200
  2521  007A50                     u1201:
  2522  007A50  EF48  F03D         	goto	l1403
  2523  007A54                     u1200:
  2524  007A54  C001  F009         	movff	___fladd@b,??___fladd
  2525  007A58  C002  F00A         	movff	___fladd@b+1,??___fladd+1
  2526  007A5C  C003  F00B         	movff	___fladd@b+2,??___fladd+2
  2527  007A60  C004  F00C         	movff	___fladd@b+3,??___fladd+3
  2528  007A64  340C               	rlcf	(??___fladd+3)^0,w,c
  2529  007A66  320C               	rrcf	(??___fladd+3)^0,f,c
  2530  007A68  320B               	rrcf	(??___fladd+2)^0,f,c
  2531  007A6A  320A               	rrcf	(??___fladd+1)^0,f,c
  2532  007A6C  3209               	rrcf	??___fladd^0,f,c
  2533  007A6E  C009  F001         	movff	??___fladd,___fladd@b
  2534  007A72  C00A  F002         	movff	??___fladd+1,___fladd@b+1
  2535  007A76  C00B  F003         	movff	??___fladd+2,___fladd@b+2
  2536  007A7A  C00C  F004         	movff	??___fladd+3,___fladd@b+3
  2537  007A7E  280F               	incf	___fladd@bexp^0,w,c
  2538  007A80  B4D8               	btfsc	status,2,c
  2539  007A82  EF45  F03D         	goto	u1211
  2540  007A86  EF47  F03D         	goto	u1210
  2541  007A8A                     u1211:
  2542  007A8A  EF48  F03D         	goto	l1403
  2543  007A8E                     u1210:
  2544  007A8E  2A0F               	incf	___fladd@bexp^0,f,c
  2545  007A90                     l1403:
  2546  007A90  280F               	incf	___fladd@bexp^0,w,c
  2547  007A92  B4D8               	btfsc	status,2,c
  2548  007A94  EF4E  F03D         	goto	u1221
  2549  007A98  EF50  F03D         	goto	u1220
  2550  007A9C                     u1221:
  2551  007A9C  EF58  F03D         	goto	l1407
  2552  007AA0                     u1220:
  2553  007AA0  500F               	movf	___fladd@bexp^0,w,c
  2554  007AA2  A4D8               	btfss	status,2,c
  2555  007AA4  EF56  F03D         	goto	u1231
  2556  007AA8  EF58  F03D         	goto	u1230
  2557  007AAC                     u1231:
  2558  007AAC  EF6A  F03D         	goto	l1411
  2559  007AB0                     u1230:
  2560  007AB0                     l1407:
  2561  007AB0  0E00               	movlw	0
  2562  007AB2  6E01               	movwf	___fladd@b^0,c
  2563  007AB4  0E00               	movlw	0
  2564  007AB6  6E02               	movwf	(___fladd@b+1)^0,c
  2565  007AB8  0E00               	movlw	0
  2566  007ABA  6E03               	movwf	(___fladd@b+2)^0,c
  2567  007ABC  0E00               	movlw	0
  2568  007ABE  6E04               	movwf	(___fladd@b+3)^0,c
  2569  007AC0  500F               	movf	___fladd@bexp^0,w,c
  2570  007AC2  A4D8               	btfss	status,2,c
  2571  007AC4  EF66  F03D         	goto	u1241
  2572  007AC8  EF68  F03D         	goto	u1240
  2573  007ACC                     u1241:
  2574  007ACC  EF6A  F03D         	goto	l1411
  2575  007AD0                     u1240:
  2576  007AD0  0E00               	movlw	0
  2577  007AD2  6E0D               	movwf	___fladd@signs^0,c
  2578  007AD4                     l1411:
  2579  007AD4  A00F               	btfss	___fladd@bexp^0,0,c
  2580  007AD6  EF6F  F03D         	goto	u1251
  2581  007ADA  EF71  F03D         	goto	u1250
  2582  007ADE                     u1251:
  2583  007ADE  EF74  F03D         	goto	l1415
  2584  007AE2                     u1250:
  2585  007AE2  8E03               	bsf	(___fladd@b+2)^0,7,c
  2586  007AE4  EF75  F03D         	goto	l1417
  2587  007AE8                     l1415:
  2588  007AE8  9E03               	bcf	(___fladd@b+2)^0,7,c
  2589  007AEA                     l1417:
  2590  007AEA  90D8               	bcf	status,0,c
  2591  007AEC  300F               	rrcf	___fladd@bexp^0,w,c
  2592  007AEE  6E04               	movwf	(___fladd@b+3)^0,c
  2593  007AF0  AE0D               	btfss	___fladd@signs^0,7,c
  2594  007AF2  EF7D  F03D         	goto	u1261
  2595  007AF6  EF7F  F03D         	goto	u1260
  2596  007AFA                     u1261:
  2597  007AFA  EF80  F03D         	goto	l1423
  2598  007AFE                     u1260:
  2599  007AFE  8E04               	bsf	(___fladd@b+3)^0,7,c
  2600  007B00                     l1423:
  2601  007B00  C001  F001         	movff	___fladd@b,?___fladd
  2602  007B04  C002  F002         	movff	___fladd@b+1,?___fladd+1
  2603  007B08  C003  F003         	movff	___fladd@b+2,?___fladd+2
  2604  007B0C  C004  F004         	movff	___fladd@b+3,?___fladd+3
  2605  007B10                     l609:
  2606  007B10  0012               	return		;funcret
  2607  007B12                     __end_of___fladd:
  2608                           	callstack 0
  2609                           
  2610 ;; *************** function ___fldiv *****************
  2611 ;; Defined at:
  2612 ;;		line 11 in file "C:\Program Files\Microchip\xc8\v2.32\pic\sources\c99\common\sprcdiv.c"
  2613 ;; Parameters:    Size  Location     Type
  2614 ;;  b               4   14[COMRAM] unsigned char 
  2615 ;;  a               4   18[COMRAM] unsigned char 
  2616 ;; Auto vars:     Size  Location     Type
  2617 ;;  grs             4   33[COMRAM] unsigned long 
  2618 ;;  rem             4   26[COMRAM] unsigned long 
  2619 ;;  new_exp         2   31[COMRAM] short 
  2620 ;;  aexp            1   38[COMRAM] unsigned char 
  2621 ;;  bexp            1   37[COMRAM] unsigned char 
  2622 ;;  sign            1   30[COMRAM] unsigned char 
  2623 ;; Return value:  Size  Location     Type
  2624 ;;                  4   14[COMRAM] unsigned char 
  2625 ;; Registers used:
  2626 ;;		wreg, status,2, status,0
  2627 ;; Tracked objects:
  2628 ;;		On entry : 0/0
  2629 ;;		On exit  : 0/0
  2630 ;;		Unchanged: 0/0
  2631 ;; Data sizes:     COMRAM   BANK0   BANK1   BANK2   BANK3   BANK4   BANK5   BANK6   BANK7
  2632 ;;      Params:         8       0       0       0       0       0       0       0       0
  2633 ;;      Locals:        13       0       0       0       0       0       0       0       0
  2634 ;;      Temps:          4       0       0       0       0       0       0       0       0
  2635 ;;      Totals:        25       0       0       0       0       0       0       0       0
  2636 ;;Total ram usage:       25 bytes
  2637 ;; Hardware stack levels used: 1
  2638 ;; This function calls:
  2639 ;;		Nothing
  2640 ;; This function is called by:
  2641 ;;		_tocar_nota
  2642 ;;		_silencio
  2643 ;; This function uses a non-reentrant model
  2644 ;;
  2645                           
  2646                           	psect	text9
  2647  0072B8                     __ptext9:
  2648                           	callstack 0
  2649  0072B8                     ___fldiv:
  2650                           	callstack 28
  2651  0072B8  5012               	movf	(___fldiv@b+3)^0,w,c
  2652  0072BA  0B80               	andlw	128
  2653  0072BC  6E1F               	movwf	___fldiv@sign^0,c
  2654  0072BE  5012               	movf	(___fldiv@b+3)^0,w,c
  2655  0072C0  2412               	addwf	(___fldiv@b+3)^0,w,c
  2656  0072C2  6E26               	movwf	___fldiv@bexp^0,c
  2657  0072C4  AE11               	btfss	(___fldiv@b+2)^0,7,c
  2658  0072C6  EF67  F039         	goto	u1271
  2659  0072CA  EF69  F039         	goto	u1270
  2660  0072CE                     u1271:
  2661  0072CE  EF6A  F039         	goto	l1433
  2662  0072D2                     u1270:
  2663  0072D2  8026               	bsf	___fldiv@bexp^0,0,c
  2664  0072D4                     l1433:
  2665  0072D4  5026               	movf	___fldiv@bexp^0,w,c
  2666  0072D6  B4D8               	btfsc	status,2,c
  2667  0072D8  EF70  F039         	goto	u1281
  2668  0072DC  EF72  F039         	goto	u1280
  2669  0072E0                     u1281:
  2670  0072E0  EF87  F039         	goto	l1443
  2671  0072E4                     u1280:
  2672  0072E4  2826               	incf	___fldiv@bexp^0,w,c
  2673  0072E6  A4D8               	btfss	status,2,c
  2674  0072E8  EF78  F039         	goto	u1291
  2675  0072EC  EF7A  F039         	goto	u1290
  2676  0072F0                     u1291:
  2677  0072F0  EF82  F039         	goto	l1439
  2678  0072F4                     u1290:
  2679  0072F4  0E00               	movlw	0
  2680  0072F6  6E0F               	movwf	___fldiv@b^0,c
  2681  0072F8  0E00               	movlw	0
  2682  0072FA  6E10               	movwf	(___fldiv@b+1)^0,c
  2683  0072FC  0E00               	movlw	0
  2684  0072FE  6E11               	movwf	(___fldiv@b+2)^0,c
  2685  007300  0E00               	movlw	0
  2686  007302  6E12               	movwf	(___fldiv@b+3)^0,c
  2687  007304                     l1439:
  2688  007304  8E11               	bsf	(___fldiv@b+2)^0,7,c
  2689  007306  0E00               	movlw	0
  2690  007308  6E12               	movwf	(___fldiv@b+3)^0,c
  2691  00730A  EF8F  F039         	goto	l1445
  2692  00730E                     l1443:
  2693  00730E  0E00               	movlw	0
  2694  007310  6E0F               	movwf	___fldiv@b^0,c
  2695  007312  0E00               	movlw	0
  2696  007314  6E10               	movwf	(___fldiv@b+1)^0,c
  2697  007316  0E00               	movlw	0
  2698  007318  6E11               	movwf	(___fldiv@b+2)^0,c
  2699  00731A  0E00               	movlw	0
  2700  00731C  6E12               	movwf	(___fldiv@b+3)^0,c
  2701  00731E                     l1445:
  2702  00731E  5016               	movf	(___fldiv@a+3)^0,w,c
  2703  007320  0B80               	andlw	128
  2704  007322  1A1F               	xorwf	___fldiv@sign^0,f,c
  2705  007324  5016               	movf	(___fldiv@a+3)^0,w,c
  2706  007326  2416               	addwf	(___fldiv@a+3)^0,w,c
  2707  007328  6E27               	movwf	___fldiv@aexp^0,c
  2708  00732A  AE15               	btfss	(___fldiv@a+2)^0,7,c
  2709  00732C  EF9A  F039         	goto	u1301
  2710  007330  EF9C  F039         	goto	u1300
  2711  007334                     u1301:
  2712  007334  EF9D  F039         	goto	l1453
  2713  007338                     u1300:
  2714  007338  8027               	bsf	___fldiv@aexp^0,0,c
  2715  00733A                     l1453:
  2716  00733A  5027               	movf	___fldiv@aexp^0,w,c
  2717  00733C  B4D8               	btfsc	status,2,c
  2718  00733E  EFA3  F039         	goto	u1311
  2719  007342  EFA5  F039         	goto	u1310
  2720  007346                     u1311:
  2721  007346  EFBA  F039         	goto	l1463
  2722  00734A                     u1310:
  2723  00734A  2827               	incf	___fldiv@aexp^0,w,c
  2724  00734C  A4D8               	btfss	status,2,c
  2725  00734E  EFAB  F039         	goto	u1321
  2726  007352  EFAD  F039         	goto	u1320
  2727  007356                     u1321:
  2728  007356  EFB5  F039         	goto	l1459
  2729  00735A                     u1320:
  2730  00735A  0E00               	movlw	0
  2731  00735C  6E13               	movwf	___fldiv@a^0,c
  2732  00735E  0E00               	movlw	0
  2733  007360  6E14               	movwf	(___fldiv@a+1)^0,c
  2734  007362  0E00               	movlw	0
  2735  007364  6E15               	movwf	(___fldiv@a+2)^0,c
  2736  007366  0E00               	movlw	0
  2737  007368  6E16               	movwf	(___fldiv@a+3)^0,c
  2738  00736A                     l1459:
  2739  00736A  8E15               	bsf	(___fldiv@a+2)^0,7,c
  2740  00736C  0E00               	movlw	0
  2741  00736E  6E16               	movwf	(___fldiv@a+3)^0,c
  2742  007370  EFC2  F039         	goto	l1465
  2743  007374                     l1463:
  2744  007374  0E00               	movlw	0
  2745  007376  6E13               	movwf	___fldiv@a^0,c
  2746  007378  0E00               	movlw	0
  2747  00737A  6E14               	movwf	(___fldiv@a+1)^0,c
  2748  00737C  0E00               	movlw	0
  2749  00737E  6E15               	movwf	(___fldiv@a+2)^0,c
  2750  007380  0E00               	movlw	0
  2751  007382  6E16               	movwf	(___fldiv@a+3)^0,c
  2752  007384                     l1465:
  2753  007384  5013               	movf	___fldiv@a^0,w,c
  2754  007386  1014               	iorwf	(___fldiv@a+1)^0,w,c
  2755  007388  1015               	iorwf	(___fldiv@a+2)^0,w,c
  2756  00738A  1016               	iorwf	(___fldiv@a+3)^0,w,c
  2757  00738C  A4D8               	btfss	status,2,c
  2758  00738E  EFCB  F039         	goto	u1331
  2759  007392  EFCD  F039         	goto	u1330
  2760  007396                     u1331:
  2761  007396  EFE5  F039         	goto	l1477
  2762  00739A                     u1330:
  2763  00739A  0E00               	movlw	0
  2764  00739C  6E0F               	movwf	___fldiv@b^0,c
  2765  00739E  0E00               	movlw	0
  2766  0073A0  6E10               	movwf	(___fldiv@b+1)^0,c
  2767  0073A2  0E00               	movlw	0
  2768  0073A4  6E11               	movwf	(___fldiv@b+2)^0,c
  2769  0073A6  0E00               	movlw	0
  2770  0073A8  6E12               	movwf	(___fldiv@b+3)^0,c
  2771  0073AA  0E80               	movlw	128
  2772  0073AC  1211               	iorwf	(___fldiv@b+2)^0,f,c
  2773  0073AE  0E7F               	movlw	127
  2774  0073B0  1212               	iorwf	(___fldiv@b+3)^0,f,c
  2775  0073B2                     l1471:
  2776  0073B2  501F               	movf	___fldiv@sign^0,w,c
  2777  0073B4  1212               	iorwf	(___fldiv@b+3)^0,f,c
  2778  0073B6  C00F  F00F         	movff	___fldiv@b,?___fldiv
  2779  0073BA  C010  F010         	movff	___fldiv@b+1,?___fldiv+1
  2780  0073BE  C011  F011         	movff	___fldiv@b+2,?___fldiv+2
  2781  0073C2  C012  F012         	movff	___fldiv@b+3,?___fldiv+3
  2782  0073C6  EF28  F03B         	goto	l654
  2783  0073CA                     l1477:
  2784  0073CA  5026               	movf	___fldiv@bexp^0,w,c
  2785  0073CC  A4D8               	btfss	status,2,c
  2786  0073CE  EFEB  F039         	goto	u1341
  2787  0073D2  EFED  F039         	goto	u1340
  2788  0073D6                     u1341:
  2789  0073D6  EFF7  F039         	goto	l1485
  2790  0073DA                     u1340:
  2791  0073DA  0E00               	movlw	0
  2792  0073DC  6E0F               	movwf	?___fldiv^0,c
  2793  0073DE  0E00               	movlw	0
  2794  0073E0  6E10               	movwf	(?___fldiv+1)^0,c
  2795  0073E2  0E00               	movlw	0
  2796  0073E4  6E11               	movwf	(?___fldiv+2)^0,c
  2797  0073E6  0E00               	movlw	0
  2798  0073E8  6E12               	movwf	(?___fldiv+3)^0,c
  2799  0073EA  EF28  F03B         	goto	l654
  2800  0073EE                     l1485:
  2801  0073EE  5027               	movf	___fldiv@aexp^0,w,c
  2802  0073F0  C026  F017         	movff	___fldiv@bexp,??___fldiv
  2803  0073F4  6A18               	clrf	(??___fldiv+1)^0,c
  2804  0073F6  5E17               	subwf	??___fldiv^0,f,c
  2805  0073F8  0E00               	movlw	0
  2806  0073FA  5A18               	subwfb	(??___fldiv+1)^0,f,c
  2807  0073FC  0E7F               	movlw	127
  2808  0073FE  2417               	addwf	??___fldiv^0,w,c
  2809  007400  6E20               	movwf	___fldiv@new_exp^0,c
  2810  007402  0E00               	movlw	0
  2811  007404  2018               	addwfc	(??___fldiv+1)^0,w,c
  2812  007406  6E21               	movwf	(___fldiv@new_exp+1)^0,c
  2813  007408  C00F  F01B         	movff	___fldiv@b,___fldiv@rem
  2814  00740C  C010  F01C         	movff	___fldiv@b+1,___fldiv@rem+1
  2815  007410  C011  F01D         	movff	___fldiv@b+2,___fldiv@rem+2
  2816  007414  C012  F01E         	movff	___fldiv@b+3,___fldiv@rem+3
  2817  007418  0E00               	movlw	0
  2818  00741A  6E0F               	movwf	___fldiv@b^0,c
  2819  00741C  0E00               	movlw	0
  2820  00741E  6E10               	movwf	(___fldiv@b+1)^0,c
  2821  007420  0E00               	movlw	0
  2822  007422  6E11               	movwf	(___fldiv@b+2)^0,c
  2823  007424  0E00               	movlw	0
  2824  007426  6E12               	movwf	(___fldiv@b+3)^0,c
  2825  007428  0E00               	movlw	0
  2826  00742A  6E22               	movwf	___fldiv@grs^0,c
  2827  00742C  0E00               	movlw	0
  2828  00742E  6E23               	movwf	(___fldiv@grs+1)^0,c
  2829  007430  0E00               	movlw	0
  2830  007432  6E24               	movwf	(___fldiv@grs+2)^0,c
  2831  007434  0E00               	movlw	0
  2832  007436  6E25               	movwf	(___fldiv@grs+3)^0,c
  2833  007438  0E00               	movlw	0
  2834  00743A  6E27               	movwf	___fldiv@aexp^0,c
  2835  00743C  EF58  F03A         	goto	l656
  2836  007440                     l1495:
  2837  007440  5027               	movf	___fldiv@aexp^0,w,c
  2838  007442  B4D8               	btfsc	status,2,c
  2839  007444  EF26  F03A         	goto	u1351
  2840  007448  EF28  F03A         	goto	u1350
  2841  00744C                     u1351:
  2842  00744C  EF3F  F03A         	goto	l1503
  2843  007450                     u1350:
  2844  007450  90D8               	bcf	status,0,c
  2845  007452  361B               	rlcf	___fldiv@rem^0,f,c
  2846  007454  361C               	rlcf	(___fldiv@rem+1)^0,f,c
  2847  007456  361D               	rlcf	(___fldiv@rem+2)^0,f,c
  2848  007458  361E               	rlcf	(___fldiv@rem+3)^0,f,c
  2849  00745A  90D8               	bcf	status,0,c
  2850  00745C  360F               	rlcf	___fldiv@b^0,f,c
  2851  00745E  3610               	rlcf	(___fldiv@b+1)^0,f,c
  2852  007460  3611               	rlcf	(___fldiv@b+2)^0,f,c
  2853  007462  3612               	rlcf	(___fldiv@b+3)^0,f,c
  2854  007464  AE25               	btfss	(___fldiv@grs+3)^0,7,c
  2855  007466  EF37  F03A         	goto	u1361
  2856  00746A  EF39  F03A         	goto	u1360
  2857  00746E                     u1361:
  2858  00746E  EF3A  F03A         	goto	l659
  2859  007472                     u1360:
  2860  007472  800F               	bsf	___fldiv@b^0,0,c
  2861  007474                     l659:
  2862  007474  90D8               	bcf	status,0,c
  2863  007476  3622               	rlcf	___fldiv@grs^0,f,c
  2864  007478  3623               	rlcf	(___fldiv@grs+1)^0,f,c
  2865  00747A  3624               	rlcf	(___fldiv@grs+2)^0,f,c
  2866  00747C  3625               	rlcf	(___fldiv@grs+3)^0,f,c
  2867  00747E                     l1503:
  2868  00747E  5013               	movf	___fldiv@a^0,w,c
  2869  007480  5C1B               	subwf	___fldiv@rem^0,w,c
  2870  007482  5014               	movf	(___fldiv@a+1)^0,w,c
  2871  007484  581C               	subwfb	(___fldiv@rem+1)^0,w,c
  2872  007486  5015               	movf	(___fldiv@a+2)^0,w,c
  2873  007488  581D               	subwfb	(___fldiv@rem+2)^0,w,c
  2874  00748A  5016               	movf	(___fldiv@a+3)^0,w,c
  2875  00748C  581E               	subwfb	(___fldiv@rem+3)^0,w,c
  2876  00748E  A0D8               	btfss	status,0,c
  2877  007490  EF4C  F03A         	goto	u1371
  2878  007494  EF4E  F03A         	goto	u1370
  2879  007498                     u1371:
  2880  007498  EF57  F03A         	goto	l1509
  2881  00749C                     u1370:
  2882  00749C  8C25               	bsf	(___fldiv@grs+3)^0,6,c
  2883  00749E  5013               	movf	___fldiv@a^0,w,c
  2884  0074A0  5E1B               	subwf	___fldiv@rem^0,f,c
  2885  0074A2  5014               	movf	(___fldiv@a+1)^0,w,c
  2886  0074A4  5A1C               	subwfb	(___fldiv@rem+1)^0,f,c
  2887  0074A6  5015               	movf	(___fldiv@a+2)^0,w,c
  2888  0074A8  5A1D               	subwfb	(___fldiv@rem+2)^0,f,c
  2889  0074AA  5016               	movf	(___fldiv@a+3)^0,w,c
  2890  0074AC  5A1E               	subwfb	(___fldiv@rem+3)^0,f,c
  2891  0074AE                     l1509:
  2892  0074AE  2A27               	incf	___fldiv@aexp^0,f,c
  2893  0074B0                     l656:
  2894  0074B0  0E19               	movlw	25
  2895  0074B2  6427               	cpfsgt	___fldiv@aexp^0,c
  2896  0074B4  EF5E  F03A         	goto	u1381
  2897  0074B8  EF60  F03A         	goto	u1380
  2898  0074BC                     u1381:
  2899  0074BC  EF20  F03A         	goto	l1495
  2900  0074C0                     u1380:
  2901  0074C0  501B               	movf	___fldiv@rem^0,w,c
  2902  0074C2  101C               	iorwf	(___fldiv@rem+1)^0,w,c
  2903  0074C4  101D               	iorwf	(___fldiv@rem+2)^0,w,c
  2904  0074C6  101E               	iorwf	(___fldiv@rem+3)^0,w,c
  2905  0074C8  B4D8               	btfsc	status,2,c
  2906  0074CA  EF69  F03A         	goto	u1391
  2907  0074CE  EF6B  F03A         	goto	u1390
  2908  0074D2                     u1391:
  2909  0074D2  EF83  F03A         	goto	l1521
  2910  0074D6                     u1390:
  2911  0074D6  8022               	bsf	___fldiv@grs^0,0,c
  2912  0074D8  EF83  F03A         	goto	l1521
  2913  0074DC                     l1515:
  2914  0074DC  90D8               	bcf	status,0,c
  2915  0074DE  360F               	rlcf	___fldiv@b^0,f,c
  2916  0074E0  3610               	rlcf	(___fldiv@b+1)^0,f,c
  2917  0074E2  3611               	rlcf	(___fldiv@b+2)^0,f,c
  2918  0074E4  3612               	rlcf	(___fldiv@b+3)^0,f,c
  2919  0074E6  AE25               	btfss	(___fldiv@grs+3)^0,7,c
  2920  0074E8  EF78  F03A         	goto	u1401
  2921  0074EC  EF7A  F03A         	goto	u1400
  2922  0074F0                     u1401:
  2923  0074F0  EF7B  F03A         	goto	l665
  2924  0074F4                     u1400:
  2925  0074F4  800F               	bsf	___fldiv@b^0,0,c
  2926  0074F6                     l665:
  2927  0074F6  90D8               	bcf	status,0,c
  2928  0074F8  3622               	rlcf	___fldiv@grs^0,f,c
  2929  0074FA  3623               	rlcf	(___fldiv@grs+1)^0,f,c
  2930  0074FC  3624               	rlcf	(___fldiv@grs+2)^0,f,c
  2931  0074FE  3625               	rlcf	(___fldiv@grs+3)^0,f,c
  2932  007500  0620               	decf	___fldiv@new_exp^0,f,c
  2933  007502  A0D8               	btfss	status,0,c
  2934  007504  0621               	decf	(___fldiv@new_exp+1)^0,f,c
  2935  007506                     l1521:
  2936  007506  AE11               	btfss	(___fldiv@b+2)^0,7,c
  2937  007508  EF88  F03A         	goto	u1411
  2938  00750C  EF8A  F03A         	goto	u1410
  2939  007510                     u1411:
  2940  007510  EF6E  F03A         	goto	l1515
  2941  007514                     u1410:
  2942  007514  0E00               	movlw	0
  2943  007516  6E27               	movwf	___fldiv@aexp^0,c
  2944  007518  AE25               	btfss	(___fldiv@grs+3)^0,7,c
  2945  00751A  EF91  F03A         	goto	u1421
  2946  00751E  EF93  F03A         	goto	u1420
  2947  007522                     u1421:
  2948  007522  EFB7  F03A         	goto	l667
  2949  007526                     u1420:
  2950  007526  0EFF               	movlw	255
  2951  007528  1422               	andwf	___fldiv@grs^0,w,c
  2952  00752A  6E17               	movwf	??___fldiv^0,c
  2953  00752C  0EFF               	movlw	255
  2954  00752E  1423               	andwf	(___fldiv@grs+1)^0,w,c
  2955  007530  6E18               	movwf	(??___fldiv+1)^0,c
  2956  007532  0EFF               	movlw	255
  2957  007534  1424               	andwf	(___fldiv@grs+2)^0,w,c
  2958  007536  6E19               	movwf	(??___fldiv+2)^0,c
  2959  007538  0E7F               	movlw	127
  2960  00753A  1425               	andwf	(___fldiv@grs+3)^0,w,c
  2961  00753C  6E1A               	movwf	(??___fldiv+3)^0,c
  2962  00753E  5017               	movf	??___fldiv^0,w,c
  2963  007540  1018               	iorwf	(??___fldiv+1)^0,w,c
  2964  007542  1019               	iorwf	(??___fldiv+2)^0,w,c
  2965  007544  101A               	iorwf	(??___fldiv+3)^0,w,c
  2966  007546  B4D8               	btfsc	status,2,c
  2967  007548  EFA8  F03A         	goto	u1431
  2968  00754C  EFAA  F03A         	goto	u1430
  2969  007550                     u1431:
  2970  007550  EFAE  F03A         	goto	l668
  2971  007554                     u1430:
  2972  007554                     l1529:
  2973  007554  0E01               	movlw	1
  2974  007556  6E27               	movwf	___fldiv@aexp^0,c
  2975  007558  EFB7  F03A         	goto	l667
  2976  00755C                     l668:
  2977  00755C  A00F               	btfss	___fldiv@b^0,0,c
  2978  00755E  EFB3  F03A         	goto	u1441
  2979  007562  EFB5  F03A         	goto	u1440
  2980  007566                     u1441:
  2981  007566  EFB7  F03A         	goto	l667
  2982  00756A                     u1440:
  2983  00756A  EFAA  F03A         	goto	l1529
  2984  00756E                     l667:
  2985  00756E  5027               	movf	___fldiv@aexp^0,w,c
  2986  007570  B4D8               	btfsc	status,2,c
  2987  007572  EFBD  F03A         	goto	u1451
  2988  007576  EFBF  F03A         	goto	u1450
  2989  00757A                     u1451:
  2990  00757A  EFE3  F03A         	goto	l1541
  2991  00757E                     u1450:
  2992  00757E  0E01               	movlw	1
  2993  007580  260F               	addwf	___fldiv@b^0,f,c
  2994  007582  0E00               	movlw	0
  2995  007584  2210               	addwfc	(___fldiv@b+1)^0,f,c
  2996  007586  2211               	addwfc	(___fldiv@b+2)^0,f,c
  2997  007588  2212               	addwfc	(___fldiv@b+3)^0,f,c
  2998  00758A  A012               	btfss	(___fldiv@b+3)^0,0,c
  2999  00758C  EFCA  F03A         	goto	u1461
  3000  007590  EFCC  F03A         	goto	u1460
  3001  007594                     u1461:
  3002  007594  EFE3  F03A         	goto	l1541
  3003  007598                     u1460:
  3004  007598  C00F  F017         	movff	___fldiv@b,??___fldiv
  3005  00759C  C010  F018         	movff	___fldiv@b+1,??___fldiv+1
  3006  0075A0  C011  F019         	movff	___fldiv@b+2,??___fldiv+2
  3007  0075A4  C012  F01A         	movff	___fldiv@b+3,??___fldiv+3
  3008  0075A8  341A               	rlcf	(??___fldiv+3)^0,w,c
  3009  0075AA  321A               	rrcf	(??___fldiv+3)^0,f,c
  3010  0075AC  3219               	rrcf	(??___fldiv+2)^0,f,c
  3011  0075AE  3218               	rrcf	(??___fldiv+1)^0,f,c
  3012  0075B0  3217               	rrcf	??___fldiv^0,f,c
  3013  0075B2  C017  F00F         	movff	??___fldiv,___fldiv@b
  3014  0075B6  C018  F010         	movff	??___fldiv+1,___fldiv@b+1
  3015  0075BA  C019  F011         	movff	??___fldiv+2,___fldiv@b+2
  3016  0075BE  C01A  F012         	movff	??___fldiv+3,___fldiv@b+3
  3017  0075C2  4A20               	infsnz	___fldiv@new_exp^0,f,c
  3018  0075C4  2A21               	incf	(___fldiv@new_exp+1)^0,f,c
  3019  0075C6                     l1541:
  3020  0075C6  BE21               	btfsc	(___fldiv@new_exp+1)^0,7,c
  3021  0075C8  EFEE  F03A         	goto	u1471
  3022  0075CC  5021               	movf	(___fldiv@new_exp+1)^0,w,c
  3023  0075CE  E108               	bnz	u1470
  3024  0075D0  2820               	incf	___fldiv@new_exp^0,w,c
  3025  0075D2  A0D8               	btfss	status,0,c
  3026  0075D4  EFEE  F03A         	goto	u1471
  3027  0075D8  EFF0  F03A         	goto	u1470
  3028  0075DC                     u1471:
  3029  0075DC  EFFB  F03A         	goto	l1545
  3030  0075E0                     u1470:
  3031  0075E0  0E00               	movlw	0
  3032  0075E2  6E21               	movwf	(___fldiv@new_exp+1)^0,c
  3033  0075E4  6820               	setf	___fldiv@new_exp^0,c
  3034  0075E6  0E00               	movlw	0
  3035  0075E8  6E0F               	movwf	___fldiv@b^0,c
  3036  0075EA  0E00               	movlw	0
  3037  0075EC  6E10               	movwf	(___fldiv@b+1)^0,c
  3038  0075EE  0E00               	movlw	0
  3039  0075F0  6E11               	movwf	(___fldiv@b+2)^0,c
  3040  0075F2  0E00               	movlw	0
  3041  0075F4  6E12               	movwf	(___fldiv@b+3)^0,c
  3042  0075F6                     l1545:
  3043  0075F6  BE21               	btfsc	(___fldiv@new_exp+1)^0,7,c
  3044  0075F8  EF08  F03B         	goto	u1480
  3045  0075FC  5021               	movf	(___fldiv@new_exp+1)^0,w,c
  3046  0075FE  E106               	bnz	u1481
  3047  007600  0420               	decf	___fldiv@new_exp^0,w,c
  3048  007602  B0D8               	btfsc	status,0,c
  3049  007604  EF06  F03B         	goto	u1481
  3050  007608  EF08  F03B         	goto	u1480
  3051  00760C                     u1481:
  3052  00760C  EF16  F03B         	goto	l1549
  3053  007610                     u1480:
  3054  007610  0E00               	movlw	0
  3055  007612  6E21               	movwf	(___fldiv@new_exp+1)^0,c
  3056  007614  0E00               	movlw	0
  3057  007616  6E20               	movwf	___fldiv@new_exp^0,c
  3058  007618  0E00               	movlw	0
  3059  00761A  6E0F               	movwf	___fldiv@b^0,c
  3060  00761C  0E00               	movlw	0
  3061  00761E  6E10               	movwf	(___fldiv@b+1)^0,c
  3062  007620  0E00               	movlw	0
  3063  007622  6E11               	movwf	(___fldiv@b+2)^0,c
  3064  007624  0E00               	movlw	0
  3065  007626  6E12               	movwf	(___fldiv@b+3)^0,c
  3066  007628  0E00               	movlw	0
  3067  00762A  6E1F               	movwf	___fldiv@sign^0,c
  3068  00762C                     l1549:
  3069  00762C  C020  F026         	movff	___fldiv@new_exp,___fldiv@bexp
  3070  007630  A026               	btfss	___fldiv@bexp^0,0,c
  3071  007632  EF1D  F03B         	goto	u1491
  3072  007636  EF1F  F03B         	goto	u1490
  3073  00763A                     u1491:
  3074  00763A  EF22  F03B         	goto	l1555
  3075  00763E                     u1490:
  3076  00763E  8E11               	bsf	(___fldiv@b+2)^0,7,c
  3077  007640  EF23  F03B         	goto	l1557
  3078  007644                     l1555:
  3079  007644  9E11               	bcf	(___fldiv@b+2)^0,7,c
  3080  007646                     l1557:
  3081  007646  90D8               	bcf	status,0,c
  3082  007648  3026               	rrcf	___fldiv@bexp^0,w,c
  3083  00764A  6E12               	movwf	(___fldiv@b+3)^0,c
  3084  00764C  EFD9  F039         	goto	l1471
  3085  007650                     l654:
  3086  007650  0012               	return		;funcret
  3087  007652                     __end_of___fldiv:
  3088                           	callstack 0
  3089  0000                     
  3090                           	psect	rparam
  3091  0000                     
  3092                           	psect	idloc
  3093                           
  3094                           ;Config register IDLOC0 @ 0x200000
  3095                           ;	unspecified, using default values
  3096  200000                     	org	2097152
  3097  200000  FF                 	db	255
  3098                           
  3099                           ;Config register IDLOC1 @ 0x200001
  3100                           ;	unspecified, using default values
  3101  200001                     	org	2097153
  3102  200001  FF                 	db	255
  3103                           
  3104                           ;Config register IDLOC2 @ 0x200002
  3105                           ;	unspecified, using default values
  3106  200002                     	org	2097154
  3107  200002  FF                 	db	255
  3108                           
  3109                           ;Config register IDLOC3 @ 0x200003
  3110                           ;	unspecified, using default values
  3111  200003                     	org	2097155
  3112  200003  FF                 	db	255
  3113                           
  3114                           ;Config register IDLOC4 @ 0x200004
  3115                           ;	unspecified, using default values
  3116  200004                     	org	2097156
  3117  200004  FF                 	db	255
  3118                           
  3119                           ;Config register IDLOC5 @ 0x200005
  3120                           ;	unspecified, using default values
  3121  200005                     	org	2097157
  3122  200005  FF                 	db	255
  3123                           
  3124                           ;Config register IDLOC6 @ 0x200006
  3125                           ;	unspecified, using default values
  3126  200006                     	org	2097158
  3127  200006  FF                 	db	255
  3128                           
  3129                           ;Config register IDLOC7 @ 0x200007
  3130                           ;	unspecified, using default values
  3131  200007                     	org	2097159
  3132  200007  FF                 	db	255
  3133                           
  3134                           	psect	config
  3135                           
  3136                           ;Config register CONFIG1L @ 0x300000
  3137                           ;	PLL Prescaler Selection bits
  3138                           ;	PLLDIV = 5, Divide by 5 (20 MHz oscillator input)
  3139                           ;	System Clock Postscaler Selection bits
  3140                           ;	CPUDIV = OSC1_PLL2, [Primary Oscillator Src: /1][96 MHz PLL Src: /2]
  3141                           ;	USB Clock Selection bit (used in Full-Speed USB mode only; UCFG:FSEN = 1)
  3142                           ;	USBDIV = 2, USB clock source comes from the 96 MHz PLL divided by 2
  3143  300000                     	org	3145728
  3144  300000  24                 	db	36
  3145                           
  3146                           ;Config register CONFIG1H @ 0x300001
  3147                           ;	Oscillator Selection bits
  3148                           ;	FOSC = HS, HS oscillator (HS)
  3149                           ;	Fail-Safe Clock Monitor Enable bit
  3150                           ;	FCMEN = OFF, Fail-Safe Clock Monitor disabled
  3151                           ;	Internal/External Oscillator Switchover bit
  3152                           ;	IESO = OFF, Oscillator Switchover mode disabled
  3153  300001                     	org	3145729
  3154  300001  0C                 	db	12
  3155                           
  3156                           ;Config register CONFIG2L @ 0x300002
  3157                           ;	Power-up Timer Enable bit
  3158                           ;	PWRT = OFF, PWRT disabled
  3159                           ;	Brown-out Reset Enable bits
  3160                           ;	BOR = ON, Brown-out Reset enabled in hardware only (SBOREN is disabled)
  3161                           ;	Brown-out Reset Voltage bits
  3162                           ;	BORV = 3, Minimum setting 2.05V
  3163                           ;	USB Voltage Regulator Enable bit
  3164                           ;	VREGEN = OFF, USB voltage regulator disabled
  3165  300002                     	org	3145730
  3166  300002  1F                 	db	31
  3167                           
  3168                           ;Config register CONFIG2H @ 0x300003
  3169                           ;	Watchdog Timer Enable bit
  3170                           ;	WDT = ON, WDT enabled
  3171                           ;	Watchdog Timer Postscale Select bits
  3172                           ;	WDTPS = 32768, 1:32768
  3173  300003                     	org	3145731
  3174  300003  1F                 	db	31
  3175                           
  3176                           ; Padding undefined space
  3177  300004                     	org	3145732
  3178  300004  FF                 	db	255
  3179                           
  3180                           ;Config register CONFIG3H @ 0x300005
  3181                           ;	CCP2 MUX bit
  3182                           ;	CCP2MX = ON, CCP2 input/output is multiplexed with RC1
  3183                           ;	PORTB A/D Enable bit
  3184                           ;	PBADEN = ON, PORTB<4:0> pins are configured as analog input channels on Reset
  3185                           ;	Low-Power Timer 1 Oscillator Enable bit
  3186                           ;	LPT1OSC = OFF, Timer1 configured for higher power operation
  3187                           ;	MCLR Pin Enable bit
  3188                           ;	MCLRE = ON, MCLR pin enabled; RE3 input pin disabled
  3189  300005                     	org	3145733
  3190  300005  83                 	db	131
  3191                           
  3192                           ;Config register CONFIG4L @ 0x300006
  3193                           ;	Stack Full/Underflow Reset Enable bit
  3194                           ;	STVREN = ON, Stack full/underflow will cause Reset
  3195                           ;	Single-Supply ICSP Enable bit
  3196                           ;	LVP = ON, Single-Supply ICSP enabled
  3197                           ;	Dedicated In-Circuit Debug/Programming Port (ICPORT) Enable bit
  3198                           ;	ICPRT = OFF, ICPORT disabled
  3199                           ;	Extended Instruction Set Enable bit
  3200                           ;	XINST = OFF, Instruction set extension and Indexed Addressing mode disabled (Legacy mo
      +                          de)
  3201                           ;	Background Debugger Enable bit
  3202                           ;	DEBUG = 0x1, unprogrammed default
  3203  300006                     	org	3145734
  3204  300006  85                 	db	133
  3205                           
  3206                           ; Padding undefined space
  3207  300007                     	org	3145735
  3208  300007  FF                 	db	255
  3209                           
  3210                           ;Config register CONFIG5L @ 0x300008
  3211                           ;	Code Protection bit
  3212                           ;	CP0 = OFF, Block 0 (000800-001FFFh) is not code-protected
  3213                           ;	Code Protection bit
  3214                           ;	CP1 = OFF, Block 1 (002000-003FFFh) is not code-protected
  3215                           ;	Code Protection bit
  3216                           ;	CP2 = OFF, Block 2 (004000-005FFFh) is not code-protected
  3217                           ;	Code Protection bit
  3218                           ;	CP3 = OFF, Block 3 (006000-007FFFh) is not code-protected
  3219  300008                     	org	3145736
  3220  300008  0F                 	db	15
  3221                           
  3222                           ;Config register CONFIG5H @ 0x300009
  3223                           ;	Boot Block Code Protection bit
  3224                           ;	CPB = OFF, Boot block (000000-0007FFh) is not code-protected
  3225                           ;	Data EEPROM Code Protection bit
  3226                           ;	CPD = OFF, Data EEPROM is not code-protected
  3227  300009                     	org	3145737
  3228  300009  C0                 	db	192
  3229                           
  3230                           ;Config register CONFIG6L @ 0x30000A
  3231                           ;	Write Protection bit
  3232                           ;	WRT0 = OFF, Block 0 (000800-001FFFh) is not write-protected
  3233                           ;	Write Protection bit
  3234                           ;	WRT1 = OFF, Block 1 (002000-003FFFh) is not write-protected
  3235                           ;	Write Protection bit
  3236                           ;	WRT2 = OFF, Block 2 (004000-005FFFh) is not write-protected
  3237                           ;	Write Protection bit
  3238                           ;	WRT3 = OFF, Block 3 (006000-007FFFh) is not write-protected
  3239  30000A                     	org	3145738
  3240  30000A  0F                 	db	15
  3241                           
  3242                           ;Config register CONFIG6H @ 0x30000B
  3243                           ;	Configuration Register Write Protection bit
  3244                           ;	WRTC = OFF, Configuration registers (300000-3000FFh) are not write-protected
  3245                           ;	Boot Block Write Protection bit
  3246                           ;	WRTB = OFF, Boot block (000000-0007FFh) is not write-protected
  3247                           ;	Data EEPROM Write Protection bit
  3248                           ;	WRTD = OFF, Data EEPROM is not write-protected
  3249  30000B                     	org	3145739
  3250  30000B  E0                 	db	224
  3251                           
  3252                           ;Config register CONFIG7L @ 0x30000C
  3253                           ;	Table Read Protection bit
  3254                           ;	EBTR0 = OFF, Block 0 (000800-001FFFh) is not protected from table reads executed in ot
      +                          her blocks
  3255                           ;	Table Read Protection bit
  3256                           ;	EBTR1 = OFF, Block 1 (002000-003FFFh) is not protected from table reads executed in ot
      +                          her blocks
  3257                           ;	Table Read Protection bit
  3258                           ;	EBTR2 = OFF, Block 2 (004000-005FFFh) is not protected from table reads executed in ot
      +                          her blocks
  3259                           ;	Table Read Protection bit
  3260                           ;	EBTR3 = OFF, Block 3 (006000-007FFFh) is not protected from table reads executed in ot
      +                          her blocks
  3261  30000C                     	org	3145740
  3262  30000C  0F                 	db	15
  3263                           
  3264                           ;Config register CONFIG7H @ 0x30000D
  3265                           ;	Boot Block Table Read Protection bit
  3266                           ;	EBTRB = OFF, Boot block (000000-0007FFh) is not protected from table reads executed in
      +                           other blocks
  3267  30000D                     	org	3145741
  3268  30000D  40                 	db	64
  3269                           tosu	equ	0xFFF
  3270                           tosh	equ	0xFFE
  3271                           tosl	equ	0xFFD
  3272                           stkptr	equ	0xFFC
  3273                           pclatu	equ	0xFFB
  3274                           pclath	equ	0xFFA
  3275                           pcl	equ	0xFF9
  3276                           tblptru	equ	0xFF8
  3277                           tblptrh	equ	0xFF7
  3278                           tblptrl	equ	0xFF6
  3279                           tablat	equ	0xFF5
  3280                           prodh	equ	0xFF4
  3281                           prodl	equ	0xFF3
  3282                           indf0	equ	0xFEF
  3283                           postinc0	equ	0xFEE
  3284                           postdec0	equ	0xFED
  3285                           preinc0	equ	0xFEC
  3286                           plusw0	equ	0xFEB
  3287                           fsr0h	equ	0xFEA
  3288                           fsr0l	equ	0xFE9
  3289                           wreg	equ	0xFE8
  3290                           indf1	equ	0xFE7
  3291                           postinc1	equ	0xFE6
  3292                           postdec1	equ	0xFE5
  3293                           preinc1	equ	0xFE4
  3294                           plusw1	equ	0xFE3
  3295                           fsr1h	equ	0xFE2
  3296                           fsr1l	equ	0xFE1
  3297                           bsr	equ	0xFE0
  3298                           indf2	equ	0xFDF
  3299                           postinc2	equ	0xFDE
  3300                           postdec2	equ	0xFDD
  3301                           preinc2	equ	0xFDC
  3302                           plusw2	equ	0xFDB
  3303                           fsr2h	equ	0xFDA
  3304                           fsr2l	equ	0xFD9
  3305                           status	equ	0xFD8

Data Sizes:
    Strings     0
    Constant    0
    Data        4
    BSS         14
    Persistent  0
    Stack       0

Auto Spaces:
    Space          Size  Autos    Used
    COMRAM           95     60      78
    BANK0           160      0       0
    BANK1           256      0       0
    BANK2           256      0       0
    BANK3           256      0       0
    BANK4           256      0       0
    BANK5           256      0       0
    BANK6           256      0       0
    BANK7           256      0       0

Pointer List with Targets:

    None.

Critical Paths under _main in COMRAM

    _cancion1->_silencio
    _cancion1->_tocar_nota
    _tocar_nota->___fltol
    _silencio->___fltol
    ___fltol->___fldiv
    ___flsub->___fldiv
    ___fldiv->___xxtofl

Critical Paths under _main in BANK0

    None.

Critical Paths under _main in BANK1

    None.

Critical Paths under _main in BANK2

    None.

Critical Paths under _main in BANK3

    None.

Critical Paths under _main in BANK4

    None.

Critical Paths under _main in BANK5

    None.

Critical Paths under _main in BANK6

    None.

Critical Paths under _main in BANK7

    None.

Call Graph Tables:

 ---------------------------------------------------------------------------------
 (Depth) Function   	        Calls       Base Space   Used Autos Params    Refs
 ---------------------------------------------------------------------------------
 (0) _main                                                 0     0      0   19264
                           _cancion1
                             _confT0
 ---------------------------------------------------------------------------------
 (1) _confT0                                               0     0      0       0
 ---------------------------------------------------------------------------------
 (1) _cancion1                                             0     0      0   19264
                           _silencio
                         _tocar_nota
 ---------------------------------------------------------------------------------
 (2) _tocar_nota                                          11     5      6   12596
                                             49 COMRAM    11     5      6
                            ___fldiv
                            ___flsub
                            ___fltol
                           ___xxtofl
 ---------------------------------------------------------------------------------
 (2) _silencio                                            11     5      6    6668
                                             49 COMRAM    11     5      6
                            ___fldiv
                            ___flsub
                            ___fltol
                           ___xxtofl
 ---------------------------------------------------------------------------------
 (3) ___xxtofl                                            14    10      4     474
                                              0 COMRAM    14    10      4
 ---------------------------------------------------------------------------------
 (3) ___fltol                                             10     6      4     685
                                             39 COMRAM    10     6      4
                            ___fldiv (ARG)
                           ___xxtofl (ARG)
 ---------------------------------------------------------------------------------
 (3) ___flsub                                              8     0      8    2737
                                             39 COMRAM     8     0      8
                            ___fladd
                            ___fldiv (ARG)
 ---------------------------------------------------------------------------------
 (4) ___fladd                                             16     8      8    2262
                                              0 COMRAM    16     8      8
 ---------------------------------------------------------------------------------
 (3) ___fldiv                                             25    17      8    2159
                                             14 COMRAM    25    17      8
                           ___xxtofl (ARG)
 ---------------------------------------------------------------------------------
 Estimated maximum stack depth 4
 ---------------------------------------------------------------------------------

 Call Graph Graphs:

 _main (ROOT)
   _cancion1
     _silencio
       ___fldiv
         ___xxtofl (ARG)
       ___flsub
         ___fladd
         ___fldiv (ARG)
       ___fltol
         ___fldiv (ARG)
         ___xxtofl (ARG)
       ___xxtofl
     _tocar_nota
       ___fldiv
       ___flsub
       ___fltol
       ___xxtofl
   _confT0

 Address spaces:
Name               Size   Autos  Total    Cost      Usage
BIGRAM             7FF      0       0      21        0.0%
EEDATA             100      0       0       0        0.0%
BITBANK7           100      0       0      18        0.0%
BANK7              100      0       0      19        0.0%
BITBANK6           100      0       0      16        0.0%
BANK6              100      0       0      17        0.0%
BITBANK5           100      0       0      14        0.0%
BANK5              100      0       0      15        0.0%
BITBANK4           100      0       0      12        0.0%
BANK4              100      0       0      13        0.0%
BITBANK3           100      0       0      10        0.0%
BANK3              100      0       0      11        0.0%
BITBANK2           100      0       0       8        0.0%
BANK2              100      0       0       9        0.0%
BITBANK1           100      0       0       6        0.0%
BANK1              100      0       0       7        0.0%
BITBANK0            A0      0       0       4        0.0%
BANK0               A0      0       0       5        0.0%
BITCOMRAM           5F      0       0       0        0.0%
COMRAM              5F     3C      4E       1       82.1%
BITSFR               0      0       0     200        0.0%
SFR                  0      0       0     200        0.0%
STACK                0      0       0       2        0.0%
NULL                 0      0       0       0        0.0%
ABS                  0      0      4E      20        0.0%
DATA                 0      0      4E       3        0.0%
CODE                 0      0       0       0        0.0%


Microchip Technology PIC18 Macro Assembler V2.32 build 20210201212658 
Symbol Table                                                                                   Thu Oct 07 12:24:36 2021

           ___fldiv@aexp 0027             ___fldiv@bexp 0026                        _a 0049  
                      _b 0047                        _s 0045             ___fldiv@sign 001F  
                     l30 7084                       l31 70A2                       l33 70B0  
                     l50 6F92                       l42 6F14                       l34 70D0  
                     l43 6F32                       l36 70DE                       l45 6F40  
                     l53 6C68                       l46 6F60                       l38 7102  
                     l62 6CCE                       l63 6CB8                       l48 6F6E  
                     l56 7FFE                      l600 7840                      l601 782E  
                    l602 77F4                      l617 795A                      l609 7B10  
                    l369 6E22                      l626 7A2A                      l642 6D1C  
                    l730 72B6                      l627 7A18                      l741 724E  
                    l654 7650                      l734 71F2                      l727 715A  
                    l656 74B0                      l665 74F6                      l667 756E  
                    l659 7474                      l668 755C                      u900 768E  
                    u901 768A                      u910 76D0                      u911 76CC  
                    u920 76E6                      u921 76E2                      u930 76F8  
                    u931 76F4                      u940 7708                      u941 7704  
                    u950 7744                      u951 7740                      u960 7752  
                    u880 766C                      u961 774E                      u881 7668  
                    u970 77C0                      u890 767E                      u971 77BC  
                    u891 767A                      u980 77D8                      u981 77D2  
                    u990 77DA                      wreg 000FE8             ___fltol@exp1 0031  
                   l1301 778E                     l1205 6C54                     l1311 77EC  
                   l1303 7792                     l1231 766E                     l1207 6C5E  
                   l1401 7A8E                     l1321 7822                     l1313 7802  
                   l1305 7796                     l1233 767E                     l1241 76A8  
                   l1225 7652                     l1209 6C66                     l1411 7AD4  
                   l1403 7A90                     l1331 7872                     l1323 782C  
                   l1315 780E                     l1307 77C0                     l1251 76D8  
                   l1243 76B8                     l1235 768E                     l1227 765E  
                   l1501 7472                     l1421 7AFE                     l1413 7AE2  
                   l1405 7AA0                     l1341 78AE                     l1333 7882  
                   l1325 784E                     l1317 7812                     l1309 77DC  
                   l1261 7718                     l1253 76E6                     l1245 76BE  
                   l1237 769E                     l1229 766C                     l1511 74C0  
                   l1503 747E                     l1431 72D2                     l1423 7B00  
                   l1415 7AE8                     l1407 7AB0                     l1351 78F4  
                   l1343 78BC                     l1335 7890                     l1327 785E  
                   l1319 7820                     l1271 7752                     l1263 771A  
                   l1255 76E8                     l1247 76D0                     l1239 76A0  
                   l1513 74D6                     l1521 7506                     l1505 749C  
                   l1441 7306                     l1433 72D4                     l1417 7AEA  
                   l1409 7AD0                     l1361 7970                     l1353 7928  
                   l1345 78BE                     l1337 789E                     l1281 7766  
                   l1273 7756                     l1257 76F8                     l1265 7722  
                   l1249 76D2                     l1523 7514                     l1515 74DC  
                   l1507 749E                     l1451 7338                     l1435 72E4  
                   l1443 730E                     l1427 72B8                     l1419 7AF0  
                   l1371 79AC                     l1363 7980                     l1355 792A  
                   l1347 78C8                     l1339 78AA                     l1291 777A  
                   l1283 776A                     l1275 775A                     l1267 7732  
                   l1259 7708                     l1611 6E12                     l1603 6DD6  
                   l1533 757E                     l1541 75C6                     l1525 7518  
                   l1517 74E6                     l1509 74AE                     l1461 736C  
                   l1453 733A                     l1445 731E                     l1437 72F4  
                   l1429 72C4                     l1381 79D8                     l1373 79AE  
                   l1357 793A                     l1349 78CE                     l1293 777E  
                   l1285 776E                     l1277 775E                     l1269 7744  
                   l1605 6DE2                     l1621 716A                     l1551 7630  
                   l1543 75E0                     l1535 758A                     l1527 7526  
                   l1519 74F4                     l1471 73B2                     l1455 734A  
                   l1463 7374                     l1447 7324                     l1439 7304  
                   l1391 7A10                     l1375 79BC                     l1367 7994  
                   l1383 79DA                     l1359 794A                     l1295 7782  
                   l1287 7772                     l1279 7762                     l1607 6DF2  
                   l1631 71A8                     l1623 7180                     l1615 7106  
                   l1553 763E                     l1545 75F6                     l1537 7598  
                   l1529 7554                     l1481 73DA                     l1473 73B6  
                   l1465 7384                     l1457 735A                     l1449 732A  
                   l1377 79C4                     l1369 799E                     l1385 79E8  
                   l1297 7786                     l1289 7776                     l1609 6E02  
                   l1641 7230                     l1633 71DA                     l1617 7116  
                   l1555 7644                     l1547 7610                     l1539 75C2  
                   l1491 7428                     l1467 739A                     l1459 736A  
                   l1395 7A3A                     l1387 79EC                     l1379 79C8  
                   l1299 778A                     l1571 6D1E                     l1651 7286  
                   l1643 723E                     l1635 71DC                     l1627 7194  
                   l1619 7124                     l1557 7646                     l1549 762C  
                   l1493 7438                     l1485 73EE                     l1469 73AA  
                   l1477 73CA                     l1397 7A46                     l1389 79FA  
                   l1565 6CD8                     l1581 6D74                     l1573 6D34  
                   l1653 7296                     l1645 725C                     l1637 71E8  
                   l1629 719C                     l1661 6F94                     l1495 7440  
                   l1487 7408                     l1479 73DA                     l1399 7A54  
                   l1567 6CE8                     l1583 6D84                     l1655 72A4  
                   l1647 725E                     l1639 7224                     l1671 70E4  
                   l1663 7078                     l1497 7450                     l1489 7418  
                   l1593 6DAE                     l1585 6D88                     l1577 6D48  
                   l1657 72A6                     l1649 7262                     l1681 6F70  
                   l1673 6E24                     l1665 7086                     l1499 7464  
                   l1595 6DB8                     l1587 6D96                     l1579 6D72  
                   l1683 6F74                     l1675 6F08                     l1667 70B4  
                   l1691 6CA6                     l1597 6DC2                     l1677 6F16  
                   l1669 70E0                     l1685 7B12                     l1693 6CAA  
                   l1679 6F44                     l1687 6C9C                     l1697 6CC6  
                   l1689 6CA4                     u1000 7802                     u1001 77FE  
                   u1010 7820                     u1011 781C                     u1100 7970  
                   u1020 7840                     u1101 796C                     u1021 783C  
                   u1110 7980                     u1030 784E                     u1111 797C  
                   u1031 784A                     u1200 7A54                     u1120 79AC  
                   u1040 785E                     u1201 7A50                     u1121 79A8  
                   u1041 785A                     u1210 7A8E                     u1130 79BC  
                   u1050 7890                     u1211 7A8A                     u1131 79B8  
                   u1051 788C                     u1300 7338                     u1220 7AA0  
                   u1140 79D8                     u1060 789E                     u1301 7334  
                   u1221 7A9C                     u1141 79D4                     u1061 789A  
                   u1310 734A                     u1230 7AB0                     u1150 79E8  
                   u1070 78BC                     u1311 7346                     u1231 7AAC  
                   u1151 79E4                     u1071 78B8                     u1400 74F4  
                   u1320 735A                     u1240 7AD0                     u1160 79FA  
                   u1080 78F4                     u1401 74F0                     u1321 7356  
                   u1241 7ACC                     u1161 79F6                     u1081 78F0  
                   u1410 7514                     u1330 739A                     u1250 7AE2  
                   u1170 7A10                     u1090 793A                     u1411 7510  
                   u1331 7396                     u1251 7ADE                     u1171 7A0C  
                   u1091 7936                     u1420 7526                     u1340 73DA  
                   u1260 7AFE                     u1180 7A26                     u1500 6D34  
                   u1421 7522                     u1341 73D6                     u1261 7AFA  
                   u1181 7A22                     u1501 6D30                     u1430 7554  
                   u1350 7450                     u1270 72D2                     u1190 7A3A  
                   u1510 6D68                     u1431 7550                     u1351 744C  
                   u1271 72CE                     u1191 7A36                     u1440 756A  
                   u1360 7472                     u1280 72E4                     u1520 6D96  
                   u1600 71D6                     u1441 7566                     u1361 746E  
                   u1281 72E0                     u1521 6D92                     u1601 71D2  
                   u1450 757E                     u1370 749C                     u1290 72F4  
                   u1530 6DAA                     u1610 7220                     u1451 757A  
                   u1371 7498                     u1291 72F0                     u1531 6DA6  
                   u1515 6D5E                     u1611 721C                     u1460 7598  
                   u1380 74C0                     u1540 6DD2                     u1620 723E  
                   u1700 6F40                     u1461 7594                     u1381 74BC  
                   u1541 6DCE                     u1621 723A                     u1701 6F3C  
                   u1470 75E0                     u1390 74D6                     u1550 6DF2  
                   u1630 724E                     u1710 6F6E                     u1471 75DC  
                   u1391 74D2                     u1551 6DEE                     u1631 724A  
                   u1711 6F6A                     u1480 7610                     u1560 6E02  
                   u1640 725C                     u1720 6F92                     u1481 760C  
                   u1561 6DFE                     u1641 7258                     u1721 6F8E  
                   u1490 763E                     u1650 7296                     u1570 7116  
                   u1730 6CB8                     u1491 763A                     u1651 7292  
                   u1571 7112                     u1731 6CB4                     u1660 72A4  
                   u1580 7124                     u1740 6CC6                     u1661 72A0  
                   u1581 7120                     u1741 6CC2                     u1590 7180  
                   u1670 70B0                     u1591 717C                     u1671 70AC  
                   u1680 70DE                     u1681 70DA                     u1690 7102  
                   u1691 70FE                     _TMR0 000FD6                     _main 6C9C  
                   fsr1l 000FE1                     start 0000          ___fldiv@new_exp 0020  
           ___param_bank 000000            ___fltol@sign1 0030          __end_of___fladd 7B12  
                  ?_main 0001          __end_of___fldiv 7652          __end_of___flsub 6D1E  
        __end_of___fltol 6E24                    _TRISA 000F92                    _TRISB 000F93  
                  tablat 000FF5                    status 000FD8          __initialization 6C6A  
           __end_of_main 6CD8                   ??_main 003D            __activetblptr 000000  
                 _ADCON1 000FC1          tocar_nota@tfrec 0034         __end_of_cancion1 8000  
       __end_of___xxtofl 72B8                ??___fladd 0009                ??___fldiv 0017  
              ??___flsub 0030                ??___fltol 002C                   _confT0 6C54  
                 clear_0 6C90                   isa$std 000001             __pdataCOMRAM 004B  
       __end_of_silencio 6F94                   tblptrh 000FF7                   tblptrl 000FF6  
                 tblptru 000FF8             ___xxtofl@arg 000B             ___xxtofl@exp 000A  
           ___xxtofl@val 0001               __accesstop 0060  __end_of__initialization 6C96  
          ___rparam_used 000001               ___fltol@f1 0028           __pcstackCOMRAM 0001  
                ?_confT0 0001                ?_cancion1 0001                ?___xxtofl 0001  
                __Hparam 0000                  __Lparam 0000                ?_silencio 0032  
                ___fladd 7652                  ___fldiv 72B8                  ___flsub 6CD8  
                ___fltol 6D1E          __size_of_confT0 0016                  __pcinit 6C6A  
                __ramtop 0800                  __ptext0 6C9C                  __ptext1 6C54  
                __ptext2 7B12                  __ptext3 6F94                  __ptext4 6E24  
                __ptext5 7104                  __ptext6 6D1E                  __ptext7 6CD8  
                __ptext8 7652                  __ptext9 72B8                  _buffer1 003D  
              _T0CONbits 000FD5               ??_cancion1 003D               ??___xxtofl 0005  
     tocar_nota@duracion 0032     end_of_initialization 6C96               ??_silencio 0038  
                postdec1 000FE5                  postinc0 000FEE                _PORTAbits 000F80  
              _PORTBbits 000F81               _tocar_nota 6F94              ___fladd@grs 0010  
          ___xxtofl@sign 0009              ___fldiv@grs 0022              ___fldiv@rem 001B  
          __pidataCOMRAM 6C50           __end_of_confT0 6C6A      start_initialization 6C6A  
               ??_confT0 0001              ?_tocar_nota 0032                ___fladd@a 0005  
              ___fladd@b 0001                ___fldiv@a 0013                ___fldiv@b 000F  
       silencio@duracion 0032              __pbssCOMRAM 003D                ___flsub@a 002C  
              ___flsub@b 0028        __size_of_cancion1 04EE        __size_of___xxtofl 01B4  
               ?___fladd 0001                 ?___fldiv 000F                 ?___flsub 0028  
               ?___fltol 0028        __size_of_silencio 0170                _distancia 004B  
    __size_of_tocar_nota 0170           _tocar_nota$874 0039                copy_data0 6C7E  
               __Hrparam 0000                 __Lrparam 0000         __size_of___fladd 04C0  
       __size_of___fldiv 039A         __size_of___flsub 0046         __size_of___fltol 0106  
               _cancion1 7B12                 ___xxtofl 7104            silencio@tfrec 0034  
          __size_of_main 003C                 _silencio 6E24                 isa$xinst 000000  
           _silencio$875 0039             ??_tocar_nota 0038               _INTCONbits 000FF2  
     __end_of_tocar_nota 7104            ___fladd@signs 000D             ___fladd@aexp 000E  
           ___fladd@bexp 000F  
