

Microchip MPLAB XC8 Assembler V2.32 build 20210201212658 
                                                                                               Wed Oct 13 18:13:54 2021

Microchip MPLAB XC8 C Compiler v2.32 (Free license) build 20210201212658 Og1 
     1                           	processor	18F4550
     2                           	fnconf	rparam,??,?,0
     3                           	pagewidth 120
     4                           	opt	flic
     5                           	psect	idataCOMRAM,global,class=CODE,delta=1,noexec
     6                           	psect	idataBIGRAM,global,class=CODE,delta=1,noexec
     7                           	psect	cinit,global,reloc=2,class=CODE,delta=1
     8                           	psect	bssCOMRAM,global,class=COMRAM,space=1,delta=1,lowdata,noexec
     9                           	psect	dataCOMRAM,global,class=COMRAM,space=1,delta=1,lowdata,noexec
    10                           	psect	dataBIGRAM,global,class=BIGRAM,space=1,delta=1,noexec
    11                           	psect	cstackCOMRAM,global,class=COMRAM,space=1,delta=1,lowdata,noexec
    12                           	psect	text0,global,reloc=2,class=CODE,delta=1
    13                           	psect	text1,global,reloc=2,class=CODE,delta=1
    14                           	psect	text2,global,reloc=2,class=CODE,delta=1
    15                           	psect	text3,global,reloc=2,class=CODE,delta=1
    16                           	psect	text4,global,reloc=2,class=CODE,delta=1
    17                           	psect	text5,global,reloc=2,class=CODE,delta=1,group=1
    18                           	psect	text6,global,reloc=2,class=CODE,delta=1,group=1
    19                           	psect	text7,global,reloc=2,class=CODE,delta=1,group=1
    20                           	psect	text8,global,reloc=2,class=CODE,delta=1,group=1
    21                           	psect	text9,global,reloc=2,class=CODE,delta=1,group=1
    22                           	psect	text10,global,reloc=2,class=CODE,delta=1,group=1
    23                           	psect	text11,global,reloc=2,class=CODE,delta=1,group=1
    24                           	psect	text12,global,reloc=2,class=CODE,delta=1,group=1
    25                           	psect	intsave_regs,global,class=BIGRAM,space=1,delta=1,noexec
    26                           	psect	rparam,global,class=COMRAM,space=1,delta=1,noexec
    27                           	psect	idloc,global,abs,ovrld,class=IDLOC,space=5,delta=1,noexec
    28                           	psect	config,global,abs,ovrld,class=CONFIG,space=4,delta=1,noexec
    29  0000                     
    30                           ; Version 2.20
    31                           ; Generated 12/02/2020 GMT
    32                           ; 
    33                           ; Copyright © 2020, Microchip Technology Inc. and its subsidiaries ("Microchip")
    34                           ; All rights reserved.
    35                           ; 
    36                           ; This software is developed by Microchip Technology Inc. and its subsidiaries ("Microch
      +                          ip").
    37                           ; 
    38                           ; Redistribution and use in source and binary forms, with or without modification, are
    39                           ; permitted provided that the following conditions are met:
    40                           ; 
    41                           ;     1. Redistributions of source code must retain the above copyright notice, this lis
      +                          t of
    42                           ;        conditions and the following disclaimer.
    43                           ; 
    44                           ;     2. Redistributions in binary form must reproduce the above copyright notice, this 
      +                          list
    45                           ;        of conditions and the following disclaimer in the documentation and/or other
    46                           ;        materials provided with the distribution.
    47                           ; 
    48                           ;     3. Microchip's name may not be used to endorse or promote products derived from th
      +                          is
    49                           ;        software without specific prior written permission.
    50                           ; 
    51                           ; THIS SOFTWARE IS PROVIDED BY MICROCHIP "AS IS" AND ANY EXPRESS OR IMPLIED WARRANTIES,
    52                           ; INCLUDING, BUT NOT LIMITED TO, THE IMPLIED WARRANTIES OF MERCHANTABILITY AND FITNESS F
      +                          OR
    53                           ; PURPOSE ARE DISCLAIMED.  IN NO EVENT SHALL MICROCHIP BE LIABLE FOR ANY DIRECT, INDIREC
      +                          T,
    54                           ; INCIDENTAL, SPECIAL, EXEMPLARY, OR CONSEQUENTIAL DAMAGES (INCLUDING BUT NOT LIMITED TO
    55                           ; PROCUREMENT OF SUBSTITUTE GOODS OR SERVICES; LOSS OF USE, DATA OR PROFITS; OR BUSINESS
    56                           ; INTERRUPTION) HOWSOEVER CAUSED AND ON ANY THEORY OF LIABILITY, WHETHER IN CONTRACT, ST
      +                          RICT
    57                           ; LIABILITY, OR TORT (INCLUDING NEGLIGENCE OR OTHERWISE) ARISING IN ANY WAY OUT OF THE U
      +                          SE OF
    58                           ; THIS SOFTWARE, EVEN IF ADVISED OF THE POSSIBILITY OF SUCH DAMAGE.
    59                           ; 
    60                           ; 
    61                           ; Code-generator required, PIC18F4550 Definitions
    62                           ; 
    63                           ; SFR Addresses
    64  0000                     
    65                           	psect	idataCOMRAM
    66  006656                     __pidataCOMRAM:
    67                           	callstack 0
    68                           
    69                           ;initializer for _vel
    70  006656  01F4               	dw	500
    71                           
    72                           	psect	idataBIGRAM
    73  006E66                     __pidataBIGRAM:
    74                           	callstack 0
    75                           
    76                           ;initializer for _cancion
    77  006E66  0000               	dw	0
    78  006E68  3F80               	dw	16256
    79  006E6A  2D0E               	dw	11534
    80  006E6C  4042               	dw	16450
    81  006E6E  0000               	dw	0
    82  006E70  3F80               	dw	16256
    83  006E72  0000               	dw	0
    84  006E74  3F80               	dw	16256
    85  006E76  2D0E               	dw	11534
    86  006E78  4042               	dw	16450
    87  006E7A  0000               	dw	0
    88  006E7C  3F80               	dw	16256
    89  006E7E  0000               	dw	0
    90  006E80  3F80               	dw	16256
    91  006E82  2D0E               	dw	11534
    92  006E84  4042               	dw	16450
    93  006E86  0000               	dw	0
    94  006E88  3F80               	dw	16256
    95  006E8A  0000               	dw	0
    96  006E8C  3F40               	dw	16192
    97  006E8E  7AE1               	dw	31457
    98  006E90  4074               	dw	16500
    99  006E92  0000               	dw	0
   100  006E94  3F80               	dw	16256
   101  006E96  0000               	dw	0
   102  006E98  3E80               	dw	16000
   103  006E9A  3333               	dw	13107
   104  006E9C  4023               	dw	16419
   105  006E9E  0000               	dw	0
   106  006EA0  3F80               	dw	16256
   107  006EA2  0000               	dw	0
   108  006EA4  3F80               	dw	16256
   109  006EA6  2D0E               	dw	11534
   110  006EA8  4042               	dw	16450
   111  006EAA  0000               	dw	0
   112  006EAC  3F80               	dw	16256
   113  006EAE  0000               	dw	0
   114  006EB0  3F40               	dw	16192
   115  006EB2  7AE1               	dw	31457
   116  006EB4  4074               	dw	16500
   117  006EB6  0000               	dw	0
   118  006EB8  3F80               	dw	16256
   119  006EBA  0000               	dw	0
   120  006EBC  3E80               	dw	16000
   121  006EBE  4396               	dw	17302
   122  006EC0  4023               	dw	16419
   123  006EC2  0000               	dw	0
   124  006EC4  3F80               	dw	16256
   125  006EC6  0000               	dw	0
   126  006EC8  4000               	dw	16384
   127  006ECA  2D0E               	dw	11534
   128  006ECC  4042               	dw	16450
   129  006ECE  0000               	dw	0
   130  006ED0  3F80               	dw	16256
   131  006ED2  0000               	dw	0
   132  006ED4  3F80               	dw	16256
   133  006ED6  CAC1               	dw	51905
   134  006ED8  4001               	dw	16385
   135  006EDA  0000               	dw	0
   136  006EDC  3F80               	dw	16256
   137  006EDE  0000               	dw	0
   138  006EE0  3F80               	dw	16256
   139  006EE2  CAC1               	dw	51905
   140  006EE4  4001               	dw	16385
   141  006EE6  0000               	dw	0
   142  006EE8  3F80               	dw	16256
   143  006EEA  0000               	dw	0
   144  006EEC  3F80               	dw	16256
   145  006EEE  CAC1               	dw	51905
   146  006EF0  4001               	dw	16385
   147  006EF2  0000               	dw	0
   148  006EF4  3F80               	dw	16256
   149  006EF6  0000               	dw	0
   150  006EF8  3F40               	dw	16192
   151  006EFA  9BA6               	dw	39846
   152  006EFC  3FF4               	dw	16372
   153  006EFE  0000               	dw	0
   154  006F00  3F80               	dw	16256
   155  006F02  0000               	dw	0
   156  006F04  3E80               	dw	16000
   157  006F06  4396               	dw	17302
   158  006F08  4023               	dw	16419
   159  006F0A  0000               	dw	0
   160  006F0C  3F80               	dw	16256
   161  006F0E  0000               	dw	0
   162  006F10  3F80               	dw	16256
   163  006F12  0A3D               	dw	2621
   164  006F14  4067               	dw	16487
   165  006F16  0000               	dw	0
   166  006F18  3F80               	dw	16256
   167  006F1A  0000               	dw	0
   168  006F1C  3F40               	dw	16192
   169  006F1E  7AE1               	dw	31457
   170  006F20  4074               	dw	16500
   171  006F22  0000               	dw	0
   172  006F24  3F80               	dw	16256
   173  006F26  0000               	dw	0
   174  006F28  3E80               	dw	16000
   175  006F2A  4396               	dw	17302
   176  006F2C  4023               	dw	16419
   177  006F2E  0000               	dw	0
   178  006F30  3F80               	dw	16256
   179  006F32  0000               	dw	0
   180  006F34  4000               	dw	16384
   181  006F36  2D0E               	dw	11534
   182  006F38  4042               	dw	16450
   183  006F3A  0000               	dw	0
   184  006F3C  3F80               	dw	16256
   185  006F3E  0000               	dw	0
   186  006F40  3F80               	dw	16256
   187  006F42  2D0E               	dw	11534
   188  006F44  3FC2               	dw	16322
   189  006F46  0000               	dw	0
   190  006F48  3F80               	dw	16256
   191  006F4A  0000               	dw	0
   192  006F4C  3F40               	dw	16192
   193  006F4E  2D0E               	dw	11534
   194  006F50  4042               	dw	16450
   195  006F52  0000               	dw	0
   196  006F54  3F80               	dw	16256
   197  006F56  0000               	dw	0
   198  006F58  3E80               	dw	16000
   199  006F5A  2D0E               	dw	11534
   200  006F5C  4042               	dw	16450
   201  006F5E  0000               	dw	0
   202  006F60  3F80               	dw	16256
   203  006F62  0000               	dw	0
   204  006F64  3F80               	dw	16256
   205  006F66  2D0E               	dw	11534
   206  006F68  3FC2               	dw	16322
   207  006F6A  0000               	dw	0
   208  006F6C  3F80               	dw	16256
   209  006F6E  0000               	dw	0
   210  006F70  3F40               	dw	16192
   211  006F72  B22D               	dw	45613
   212  006F74  3FCD               	dw	16333
   213  006F76  0000               	dw	0
   214  006F78  3F80               	dw	16256
   215  006F7A  0000               	dw	0
   216  006F7C  3E80               	dw	16000
   217  006F7E  FBE7               	dw	64487
   218  006F80  3FD9               	dw	16345
   219  006F82  0000               	dw	0
   220  006F84  3F80               	dw	16256
   221  006F86  0000               	dw	0
   222  006F88  3E80               	dw	16000
   223  006F8A  E979               	dw	59769
   224  006F8C  3FE6               	dw	16358
   225  006F8E  0000               	dw	0
   226  006F90  3F80               	dw	16256
   227  006F92  0000               	dw	0
   228  006F94  3E80               	dw	16000
   229  006F96  9BA6               	dw	39846
   230  006F98  3FF4               	dw	16372
   231  006F9A  0000               	dw	0
   232  006F9C  3F80               	dw	16256
   233  006F9E  999A               	dw	39322
   234  006FA0  3F19               	dw	16153
   235  006FA2  E979               	dw	59769
   236  006FA4  3FE6               	dw	16358
   237  006FA6  0000               	dw	0
   238  006FA8  3F80               	dw	16256
   239  006FAA  CCCD               	dw	52429
   240  006FAC  3E4C               	dw	15948
   241  006FAE  0000               	dw	0
   242  006FB0  3F80               	dw	16256
   243  006FB2  0000               	dw	0
   244  006FB4  0000               	dw	0
   245  006FB6  999A               	dw	39322
   246  006FB8  3F19               	dw	16153
   247  006FBA  3B64               	dw	15204
   248  006FBC  4037               	dw	16439
   249  006FBE  0000               	dw	0
   250  006FC0  3F80               	dw	16256
   251  006FC2  0000               	dw	0
   252  006FC4  3F80               	dw	16256
   253  006FC6  47AE               	dw	18350
   254  006FC8  4009               	dw	16393
   255  006FCA  0000               	dw	0
   256  006FCC  3F80               	dw	16256
   257  006FCE  0000               	dw	0
   258  006FD0  3F40               	dw	16192
   259  006FD2  78D5               	dw	30933
   260  006FD4  4011               	dw	16401
   261  006FD6  0000               	dw	0
   262  006FD8  3F80               	dw	16256
   263  006FDA  0000               	dw	0
   264  006FDC  3E80               	dw	16000
   265  006FDE  1CAC               	dw	7340
   266  006FE0  401A               	dw	16410
   267  006FE2  0000               	dw	0
   268  006FE4  3F80               	dw	16256
   269  006FE6  0000               	dw	0
   270  006FE8  3E80               	dw	16000
   271  006FEA  4396               	dw	17302
   272  006FEC  4023               	dw	16419
   273  006FEE  0000               	dw	0
   274  006FF0  3F80               	dw	16256
   275  006FF2  0000               	dw	0
   276  006FF4  3E80               	dw	16000
   277  006FF6  FDF4               	dw	65012
   278  006FF8  402C               	dw	16428
   279  006FFA  0000               	dw	0
   280  006FFC  3F80               	dw	16256
   281  006FFE  999A               	dw	39322
   282  007000  3F19               	dw	16153
   283  007002  4396               	dw	17302
   284  007004  4023               	dw	16419
   285  007006  0000               	dw	0
   286  007008  3F80               	dw	16256
   287  00700A  CCCD               	dw	52429
   288  00700C  3E4C               	dw	15948
   289  00700E  0000               	dw	0
   290  007010  3F80               	dw	16256
   291  007012  0000               	dw	0
   292  007014  0000               	dw	0
   293  007016  999A               	dw	39322
   294  007018  3F19               	dw	16153
   295  00701A  9BA6               	dw	39846
   296  00701C  4074               	dw	16500
   297  00701E  0000               	dw	0
   298  007020  3F80               	dw	16256
   299  007022  0000               	dw	0
   300  007024  3F80               	dw	16256
   301  007026  E979               	dw	59769
   302  007028  4066               	dw	16486
   303  00702A  0000               	dw	0
   304  00702C  3F80               	dw	16256
   305  00702E  0000               	dw	0
   306  007030  3F40               	dw	16192
   307  007032  9BA6               	dw	39846
   308  007034  4074               	dw	16500
   309  007036  0000               	dw	0
   310  007038  3F80               	dw	16256
   311  00703A  0000               	dw	0
   312  00703C  3E80               	dw	16000
   313  00703E  4396               	dw	17302
   314  007040  4023               	dw	16419
   315  007042  0000               	dw	0
   316  007044  3F80               	dw	16256
   317  007046  0000               	dw	0
   318  007048  3F80               	dw	16256
   319  00704A  2D0E               	dw	11534
   320  00704C  4042               	dw	16450
   321  00704E  0000               	dw	0
   322  007050  3F80               	dw	16256
   323  007052  0000               	dw	0
   324  007054  3F40               	dw	16192
   325  007056  9BA6               	dw	39846
   326  007058  4074               	dw	16500
   327  00705A  0000               	dw	0
   328  00705C  3F80               	dw	16256
   329  00705E  0000               	dw	0
   330  007060  3E80               	dw	16000
   331  007062  4396               	dw	17302
   332  007064  4023               	dw	16419
   333  007066  0000               	dw	0
   334  007068  3F80               	dw	16256
   335  00706A  0000               	dw	0
   336  00706C  40A0               	dw	16544
   337  00706E  2D0E               	dw	11534
   338  007070  4042               	dw	16450
   339  007072  0000               	dw	0
   340  007074  3F80               	dw	16256
   341  0000                     _TMR0	set	4054
   342  0000                     _TRISB	set	3987
   343  0000                     _TRISA	set	3986
   344  0000                     _ADCON1	set	4033
   345  0000                     _PORTBbits	set	3969
   346  0000                     _T0CONbits	set	4053
   347  0000                     _INTCONbits	set	4082
   348  0000                     _PORTAbits	set	3968
   349                           
   350                           ; #config settings
   351                           
   352                           	psect	cinit
   353  0066DA                     __pcinit:
   354                           	callstack 0
   355  0066DA                     start_initialization:
   356                           	callstack 0
   357  0066DA                     __initialization:
   358                           	callstack 0
   359                           
   360                           ; Initialize objects allocated to BIGRAM (528 bytes)
   361                           ; load TBLPTR registers with __pidataBIGRAM
   362  0066DA  0E66               	movlw	low __pidataBIGRAM
   363  0066DC  6EF6               	movwf	tblptrl,c
   364  0066DE  0E6E               	movlw	high __pidataBIGRAM
   365  0066E0  6EF7               	movwf	tblptrh,c
   366  0066E2  0E00               	movlw	low (__pidataBIGRAM shr (0+16))
   367  0066E4  6EF8               	movwf	tblptru,c
   368  0066E6  EE05  F0F0         	lfsr	0,__pdataBIGRAM
   369  0066EA  EE12 F010          	lfsr	1,528
   370  0066EE                     copy_data0:
   371  0066EE  0009               	tblrd		*+
   372  0066F0  CFF5 FFEE          	movff	tablat,postinc0
   373  0066F4  50E5               	movf	postdec1,w,c
   374  0066F6  50E1               	movf	fsr1l,w,c
   375  0066F8  E1FA               	bnz	copy_data0
   376  0066FA  50E2               	movf	fsr1h,w,c
   377  0066FC  E1F8               	bnz	copy_data0
   378                           
   379                           ; Initialize objects allocated to COMRAM (2 bytes)
   380                           ; load TBLPTR registers with __pidataCOMRAM
   381  0066FE  0E56               	movlw	low __pidataCOMRAM
   382  006700  6EF6               	movwf	tblptrl,c
   383  006702  0E66               	movlw	high __pidataCOMRAM
   384  006704  6EF7               	movwf	tblptrh,c
   385  006706  0E00               	movlw	low (__pidataCOMRAM shr (0+16))
   386  006708  6EF8               	movwf	tblptru,c
   387  00670A  0009               	tblrd		*+	;fetch initializer
   388  00670C  CFF5 F05B          	movff	tablat,__pdataCOMRAM
   389  006710  0009               	tblrd		*+	;fetch initializer
   390  006712  CFF5 F05C          	movff	tablat,__pdataCOMRAM+1
   391                           
   392                           ; Clear objects allocated to COMRAM (20 bytes)
   393  006716  EE00  F047         	lfsr	0,__pbssCOMRAM
   394  00671A  0E14               	movlw	20
   395  00671C                     clear_0:
   396  00671C  6AEE               	clrf	postinc0,c
   397  00671E  06E8               	decf	wreg,f,c
   398  006720  E1FD               	bnz	clear_0
   399  006722                     end_of_initialization:
   400                           	callstack 0
   401  006722                     __end_of__initialization:
   402                           	callstack 0
   403  006722  0E00               	movlw	low (__Lmediumconst shr (0+16))
   404  006724  6EF8               	movwf	tblptru,c
   405  006726  0100               	movlb	0
   406  006728  EFEB  F033         	goto	_main	;jump to C main() function
   407                           
   408                           	psect	bssCOMRAM
   409  000047                     __pbssCOMRAM:
   410                           	callstack 0
   411  000047                     _buffer1:
   412                           	callstack 0
   413  000047                     	ds	8
   414  00004F                     _s:
   415                           	callstack 0
   416  00004F                     	ds	2
   417  000051                     _b:
   418                           	callstack 0
   419  000051                     	ds	2
   420  000053                     _a:
   421                           	callstack 0
   422  000053                     	ds	2
   423  000055                     _l:
   424                           	callstack 0
   425  000055                     	ds	2
   426  000057                     _k:
   427                           	callstack 0
   428  000057                     	ds	2
   429  000059                     _j:
   430                           	callstack 0
   431  000059                     	ds	2
   432                           
   433                           	psect	dataCOMRAM
   434  00005B                     __pdataCOMRAM:
   435                           	callstack 0
   436  00005B                     _vel:
   437                           	callstack 0
   438  00005B                     	ds	2
   439                           
   440                           	psect	dataBIGRAM
   441  0005F0                     __pdataBIGRAM:
   442                           	callstack 0
   443  0005F0                     _cancion:
   444                           	callstack 0
   445  0005F0                     	ds	528
   446                           
   447                           	psect	cstackCOMRAM
   448  000001                     __pcstackCOMRAM:
   449                           	callstack 0
   450  000001                     ?___wmul:
   451                           	callstack 0
   452  000001                     ?___fladd:
   453                           	callstack 0
   454  000001                     ?___xxtofl:
   455                           	callstack 0
   456  000001                     ___wmul@multiplier:
   457                           	callstack 0
   458  000001                     ___fladd@b:
   459                           	callstack 0
   460  000001                     ___xxtofl@val:
   461                           	callstack 0
   462                           
   463                           ; 4 bytes @ 0x0
   464  000001                     	ds	2
   465  000003                     ___wmul@multiplicand:
   466                           	callstack 0
   467                           
   468                           ; 2 bytes @ 0x2
   469  000003                     	ds	2
   470  000005                     ??___xxtofl:
   471  000005                     ___wmul@product:
   472                           	callstack 0
   473  000005                     ___fladd@a:
   474                           	callstack 0
   475                           
   476                           ; 4 bytes @ 0x4
   477  000005                     	ds	2
   478  000007                     ___fleq@ff1:
   479                           	callstack 0
   480                           
   481                           ; 4 bytes @ 0x6
   482  000007                     	ds	2
   483  000009                     ??___fladd:
   484  000009                     ___xxtofl@sign:
   485                           	callstack 0
   486                           
   487                           ; 1 bytes @ 0x8
   488  000009                     	ds	1
   489  00000A                     ___xxtofl@exp:
   490                           	callstack 0
   491                           
   492                           ; 1 bytes @ 0x9
   493  00000A                     	ds	1
   494  00000B                     ___fleq@ff2:
   495                           	callstack 0
   496  00000B                     ___xxtofl@arg:
   497                           	callstack 0
   498                           
   499                           ; 4 bytes @ 0xA
   500  00000B                     	ds	2
   501  00000D                     ___fladd@signs:
   502                           	callstack 0
   503                           
   504                           ; 1 bytes @ 0xC
   505  00000D                     	ds	1
   506  00000E                     ___fladd@aexp:
   507                           	callstack 0
   508                           
   509                           ; 1 bytes @ 0xD
   510  00000E                     	ds	1
   511  00000F                     ??___fleq:
   512  00000F                     ?___fldiv:
   513                           	callstack 0
   514  00000F                     ?___flmul:
   515                           	callstack 0
   516  00000F                     ___fladd@bexp:
   517                           	callstack 0
   518  00000F                     ___fldiv@b:
   519                           	callstack 0
   520  00000F                     ___flmul@b:
   521                           	callstack 0
   522                           
   523                           ; 4 bytes @ 0xE
   524  00000F                     	ds	1
   525  000010                     ___fladd@grs:
   526                           	callstack 0
   527                           
   528                           ; 1 bytes @ 0xF
   529  000010                     	ds	3
   530  000013                     ___fldiv@a:
   531                           	callstack 0
   532  000013                     ___flmul@a:
   533                           	callstack 0
   534                           
   535                           ; 4 bytes @ 0x12
   536  000013                     	ds	4
   537  000017                     ??___fldiv:
   538  000017                     ??___flmul:
   539                           
   540                           ; 1 bytes @ 0x16
   541  000017                     	ds	4
   542  00001B                     ___flmul@sign:
   543                           	callstack 0
   544  00001B                     ___fldiv@rem:
   545                           	callstack 0
   546                           
   547                           ; 4 bytes @ 0x1A
   548  00001B                     	ds	1
   549  00001C                     ___flmul@grs:
   550                           	callstack 0
   551                           
   552                           ; 4 bytes @ 0x1B
   553  00001C                     	ds	3
   554  00001F                     ___fldiv@sign:
   555                           	callstack 0
   556                           
   557                           ; 1 bytes @ 0x1E
   558  00001F                     	ds	1
   559  000020                     ___flmul@aexp:
   560                           	callstack 0
   561  000020                     ___fldiv@new_exp:
   562                           	callstack 0
   563                           
   564                           ; 2 bytes @ 0x1F
   565  000020                     	ds	1
   566  000021                     ___flmul@bexp:
   567                           	callstack 0
   568                           
   569                           ; 1 bytes @ 0x20
   570  000021                     	ds	1
   571  000022                     ___fldiv@grs:
   572                           	callstack 0
   573  000022                     ___flmul@prod:
   574                           	callstack 0
   575                           
   576                           ; 4 bytes @ 0x21
   577  000022                     	ds	4
   578  000026                     ___fldiv@bexp:
   579                           	callstack 0
   580  000026                     ___flmul@temp:
   581                           	callstack 0
   582                           
   583                           ; 2 bytes @ 0x25
   584  000026                     	ds	1
   585  000027                     ___fldiv@aexp:
   586                           	callstack 0
   587                           
   588                           ; 1 bytes @ 0x26
   589  000027                     	ds	1
   590  000028                     ?___flsub:
   591                           	callstack 0
   592  000028                     ?___fltol:
   593                           	callstack 0
   594  000028                     ___fltol@f1:
   595                           	callstack 0
   596  000028                     ___flsub@b:
   597                           	callstack 0
   598                           
   599                           ; 4 bytes @ 0x27
   600  000028                     	ds	4
   601  00002C                     ??___fltol:
   602  00002C                     ___flsub@a:
   603                           	callstack 0
   604                           
   605                           ; 4 bytes @ 0x2B
   606  00002C                     	ds	4
   607  000030                     ___fltol@sign1:
   608                           	callstack 0
   609                           
   610                           ; 1 bytes @ 0x2F
   611  000030                     	ds	1
   612  000031                     ___fltol@exp1:
   613                           	callstack 0
   614                           
   615                           ; 1 bytes @ 0x30
   616  000031                     	ds	1
   617  000032                     tocar_nota@duracion:
   618                           	callstack 0
   619  000032                     silencio@duracion:
   620                           	callstack 0
   621                           
   622                           ; 2 bytes @ 0x31
   623  000032                     	ds	2
   624  000034                     tocar_nota@tfrec:
   625                           	callstack 0
   626  000034                     silencio@tfrec:
   627                           	callstack 0
   628                           
   629                           ; 4 bytes @ 0x33
   630  000034                     	ds	4
   631  000038                     ??_tocar_nota:
   632  000038                     ??_silencio:
   633                           
   634                           ; 1 bytes @ 0x37
   635  000038                     	ds	1
   636  000039                     _tocar_nota$880:
   637                           	callstack 0
   638  000039                     _silencio$881:
   639                           	callstack 0
   640                           
   641                           ; 4 bytes @ 0x38
   642  000039                     	ds	4
   643  00003D                     tocar_nota@duracion2:
   644                           	callstack 0
   645                           
   646                           ; 2 bytes @ 0x3C
   647  00003D                     	ds	2
   648  00003F                     ??_cancion1:
   649                           
   650                           ; 1 bytes @ 0x3E
   651  00003F                     	ds	2
   652  000041                     _cancion1$882:
   653                           	callstack 0
   654                           
   655                           ; 2 bytes @ 0x40
   656  000041                     	ds	2
   657  000043                     _cancion1$883:
   658                           	callstack 0
   659                           
   660                           ; 2 bytes @ 0x42
   661  000043                     	ds	2
   662  000045                     ??_main:
   663                           
   664                           ; 1 bytes @ 0x44
   665  000045                     	ds	2
   666                           
   667 ;;
   668 ;;Main: autosize = 0, tempsize = 2, incstack = 0, save=0
   669 ;;
   670 ;; *************** function _main *****************
   671 ;; Defined at:
   672 ;;		line 148 in file "main.c"
   673 ;; Parameters:    Size  Location     Type
   674 ;;		None
   675 ;; Auto vars:     Size  Location     Type
   676 ;;		None
   677 ;; Return value:  Size  Location     Type
   678 ;;                  1    wreg      void 
   679 ;; Registers used:
   680 ;;		wreg, fsr2l, fsr2h, status,2, status,0, prodl, prodh, cstack
   681 ;; Tracked objects:
   682 ;;		On entry : 0/0
   683 ;;		On exit  : 0/0
   684 ;;		Unchanged: 0/0
   685 ;; Data sizes:     COMRAM   BANK0   BANK1   BANK2   BANK3   BANK4   BANK5   BANK6   BANK7
   686 ;;      Params:         0       0       0       0       0       0       0       0       0
   687 ;;      Locals:         0       0       0       0       0       0       0       0       0
   688 ;;      Temps:          2       0       0       0       0       0       0       0       0
   689 ;;      Totals:         2       0       0       0       0       0       0       0       0
   690 ;;Total ram usage:        2 bytes
   691 ;; Hardware stack levels required when called: 4
   692 ;; This function calls:
   693 ;;		_cancion1
   694 ;;		_confT0
   695 ;; This function is called by:
   696 ;;		Startup code after reset
   697 ;; This function uses a non-reentrant model
   698 ;;
   699                           
   700                           	psect	text0
   701  0067D6                     __ptext0:
   702                           	callstack 0
   703  0067D6                     _main:
   704                           	callstack 27
   705  0067D6                     
   706                           ;main.c: 150:     ADCON1 = 15;
   707  0067D6  0E0F               	movlw	15
   708  0067D8  6EC1               	movwf	193,c	;volatile
   709                           
   710                           ;main.c: 152:     TRISA = 0b00010000;
   711  0067DA  0E10               	movlw	16
   712  0067DC  6E92               	movwf	146,c	;volatile
   713  0067DE                     
   714                           ;main.c: 153:      TRISB = 0b11111111;
   715  0067DE  6893               	setf	147,c	;volatile
   716  0067E0                     
   717                           ;main.c: 154:     confT0();
   718  0067E0  EC2C  F033         	call	_confT0	;wreg free
   719  0067E4                     l2171:
   720                           
   721                           ;main.c: 163:     if (PORTBbits.RB2 == 1) {
   722  0067E4  A481               	btfss	129,2,c	;volatile
   723  0067E6  EFF7  F033         	goto	u2401
   724  0067EA  EFF9  F033         	goto	u2400
   725  0067EE                     u2401:
   726  0067EE  EF02  F034         	goto	l2177
   727  0067F2                     u2400:
   728  0067F2                     l91:
   729  0067F2  B481               	btfsc	129,2,c	;volatile
   730  0067F4  EFFE  F033         	goto	u2411
   731  0067F8  EF00  F034         	goto	u2410
   732  0067FC                     u2411:
   733  0067FC  EFF9  F033         	goto	l91
   734  006800                     u2410:
   735  006800                     
   736                           ;main.c: 165:             l ++;
   737  006800  4A55               	infsnz	_l^0,f,c
   738  006802  2A56               	incf	(_l+1)^0,f,c
   739  006804                     l2177:
   740                           
   741                           ;main.c: 168:         if(l >= 3){
   742  006804  BE56               	btfsc	(_l+1)^0,7,c
   743  006806  EF0E  F034         	goto	u2421
   744  00680A  5056               	movf	(_l+1)^0,w,c
   745  00680C  E109               	bnz	u2420
   746  00680E  0E03               	movlw	3
   747  006810  5C55               	subwf	_l^0,w,c
   748  006812  A0D8               	btfss	status,0,c
   749  006814  EF0E  F034         	goto	u2421
   750  006818  EF10  F034         	goto	u2420
   751  00681C                     u2421:
   752  00681C  EF48  F034         	goto	l2195
   753  006820                     u2420:
   754  006820                     
   755                           ;main.c: 169:                 l = 0;
   756  006820  0E00               	movlw	0
   757  006822  6E56               	movwf	(_l+1)^0,c
   758  006824  0E00               	movlw	0
   759  006826  6E55               	movwf	_l^0,c
   760                           
   761                           ;main.c: 170:             }
   762  006828  EFF2  F033         	goto	l2171
   763  00682C                     l97:
   764                           
   765                           ;main.c: 174:                     if (PORTBbits.RB1 == 1) {
   766  00682C  A281               	btfss	129,1,c	;volatile
   767  00682E  EF1B  F034         	goto	u2431
   768  006832  EF1D  F034         	goto	u2430
   769  006836                     u2431:
   770  006836  EF62  F034         	goto	l95
   771  00683A                     u2430:
   772  00683A                     l99:
   773  00683A  B281               	btfsc	129,1,c	;volatile
   774  00683C  EF22  F034         	goto	u2441
   775  006840  EF24  F034         	goto	u2440
   776  006844                     u2441:
   777  006844  EF1D  F034         	goto	l99
   778  006848                     u2440:
   779  006848                     l2183:
   780                           
   781                           ;main.c: 176:             cancion1();
   782  006848  EC3B  F038         	call	_cancion1	;wreg free
   783  00684C  EFF2  F033         	goto	l2171
   784  006850                     l103:
   785                           
   786                           ;main.c: 182:                     if (PORTBbits.RB1 == 1) {
   787  006850  A281               	btfss	129,1,c	;volatile
   788  006852  EF2D  F034         	goto	u2451
   789  006856  EF2F  F034         	goto	u2450
   790  00685A                     u2451:
   791  00685A  EF62  F034         	goto	l95
   792  00685E                     u2450:
   793  00685E                     l105:
   794  00685E  B281               	btfsc	129,1,c	;volatile
   795  006860  EF34  F034         	goto	u2461
   796  006864  EF36  F034         	goto	u2460
   797  006868                     u2461:
   798  006868  EF2F  F034         	goto	l105
   799  00686C                     u2460:
   800  00686C  EF24  F034         	goto	l2183
   801  006870                     l108:
   802                           
   803                           ;main.c: 190:                    if (PORTBbits.RB1 == 1) {
   804  006870  A281               	btfss	129,1,c	;volatile
   805  006872  EF3D  F034         	goto	u2471
   806  006876  EF3F  F034         	goto	u2470
   807  00687A                     u2471:
   808  00687A  EF62  F034         	goto	l95
   809  00687E                     u2470:
   810  00687E                     l110:
   811  00687E  B281               	btfsc	129,1,c	;volatile
   812  006880  EF44  F034         	goto	u2481
   813  006884  EF46  F034         	goto	u2480
   814  006888                     u2481:
   815  006888  EF3F  F034         	goto	l110
   816  00688C                     u2480:
   817  00688C  EF24  F034         	goto	l2183
   818  006890                     l2195:
   819  006890  C055  F045         	movff	_l,??_main
   820  006894  C056  F046         	movff	_l+1,??_main+1
   821                           
   822                           ; Switch on 2 bytes has been partitioned into a top level switch of size 1, and 1 sub-sw
      +                          itches
   823                           ; Switch size 1, requested type "simple"
   824                           ; Number of cases is 1, Range of values is 0 to 0
   825                           ; switch strategies available:
   826                           ; Name         Instructions Cycles
   827                           ; simple_byte            4     3 (average)
   828                           ;	Chosen strategy is simple_byte
   829  006898  5046               	movf	(??_main+1)^0,w,c
   830  00689A  0A00               	xorlw	0	; case 0
   831  00689C  B4D8               	btfsc	status,2,c
   832  00689E  EF53  F034         	goto	l2209
   833  0068A2  EFF2  F033         	goto	l2171
   834  0068A6                     l2209:
   835                           
   836                           ; Switch size 1, requested type "simple"
   837                           ; Number of cases is 3, Range of values is 0 to 2
   838                           ; switch strategies available:
   839                           ; Name         Instructions Cycles
   840                           ; simple_byte           10     6 (average)
   841                           ;	Chosen strategy is simple_byte
   842  0068A6  5045               	movf	??_main^0,w,c
   843  0068A8  0A00               	xorlw	0	; case 0
   844  0068AA  B4D8               	btfsc	status,2,c
   845  0068AC  EF16  F034         	goto	l97
   846  0068B0  0A01               	xorlw	1	; case 1
   847  0068B2  B4D8               	btfsc	status,2,c
   848  0068B4  EF28  F034         	goto	l103
   849  0068B8  0A03               	xorlw	3	; case 2
   850  0068BA  B4D8               	btfsc	status,2,c
   851  0068BC  EF38  F034         	goto	l108
   852  0068C0  EFF2  F033         	goto	l2171
   853  0068C4                     l95:
   854  0068C4  EFF2  F033         	goto	l2171
   855  0068C8  EF00  F000         	goto	start
   856  0068CC                     __end_of_main:
   857                           	callstack 0
   858                           
   859 ;; *************** function _confT0 *****************
   860 ;; Defined at:
   861 ;;		line 62 in file "main.c"
   862 ;; Parameters:    Size  Location     Type
   863 ;;		None
   864 ;; Auto vars:     Size  Location     Type
   865 ;;		None
   866 ;; Return value:  Size  Location     Type
   867 ;;                  1    wreg      void 
   868 ;; Registers used:
   869 ;;		wreg, status,2
   870 ;; Tracked objects:
   871 ;;		On entry : 0/0
   872 ;;		On exit  : 0/0
   873 ;;		Unchanged: 0/0
   874 ;; Data sizes:     COMRAM   BANK0   BANK1   BANK2   BANK3   BANK4   BANK5   BANK6   BANK7
   875 ;;      Params:         0       0       0       0       0       0       0       0       0
   876 ;;      Locals:         0       0       0       0       0       0       0       0       0
   877 ;;      Temps:          0       0       0       0       0       0       0       0       0
   878 ;;      Totals:         0       0       0       0       0       0       0       0       0
   879 ;;Total ram usage:        0 bytes
   880 ;; Hardware stack levels used: 1
   881 ;; This function calls:
   882 ;;		Nothing
   883 ;; This function is called by:
   884 ;;		_main
   885 ;; This function uses a non-reentrant model
   886 ;;
   887                           
   888                           	psect	text1
   889  006658                     __ptext1:
   890                           	callstack 0
   891  006658                     _confT0:
   892                           	callstack 30
   893  006658                     
   894                           ;main.c: 64:     T0CONbits.TMR0ON = 1;
   895  006658  8ED5               	bsf	213,7,c	;volatile
   896                           
   897                           ;main.c: 65:       T0CONbits.T08BIT = 1;
   898  00665A  8CD5               	bsf	213,6,c	;volatile
   899                           
   900                           ;main.c: 66:       T0CONbits.T0CS = 0;
   901  00665C  9AD5               	bcf	213,5,c	;volatile
   902                           
   903                           ;main.c: 67:       T0CONbits.T0SE = 0;
   904  00665E  98D5               	bcf	213,4,c	;volatile
   905                           
   906                           ;main.c: 68:       T0CONbits.PSA = 0;
   907  006660  96D5               	bcf	213,3,c	;volatile
   908  006662                     
   909                           ;main.c: 69:       T0CONbits.T0PS = 0b110;
   910  006662  50D5               	movf	213,w,c	;volatile
   911  006664  0BF8               	andlw	-8
   912  006666  0906               	iorlw	6
   913  006668  6ED5               	movwf	213,c	;volatile
   914  00666A                     
   915                           ;main.c: 71:       INTCONbits.TMR0IE = 1;
   916  00666A  8AF2               	bsf	242,5,c	;volatile
   917  00666C  0012               	return		;funcret
   918  00666E                     __end_of_confT0:
   919                           	callstack 0
   920                           
   921 ;; *************** function _cancion1 *****************
   922 ;; Defined at:
   923 ;;		line 99 in file "main.c"
   924 ;; Parameters:    Size  Location     Type
   925 ;;		None
   926 ;; Auto vars:     Size  Location     Type
   927 ;;		None
   928 ;; Return value:  Size  Location     Type
   929 ;;                  1    wreg      void 
   930 ;; Registers used:
   931 ;;		wreg, fsr2l, fsr2h, status,2, status,0, prodl, prodh, cstack
   932 ;; Tracked objects:
   933 ;;		On entry : 0/0
   934 ;;		On exit  : 0/0
   935 ;;		Unchanged: 0/0
   936 ;; Data sizes:     COMRAM   BANK0   BANK1   BANK2   BANK3   BANK4   BANK5   BANK6   BANK7
   937 ;;      Params:         0       0       0       0       0       0       0       0       0
   938 ;;      Locals:         4       0       0       0       0       0       0       0       0
   939 ;;      Temps:          2       0       0       0       0       0       0       0       0
   940 ;;      Totals:         6       0       0       0       0       0       0       0       0
   941 ;;Total ram usage:        6 bytes
   942 ;; Hardware stack levels used: 1
   943 ;; Hardware stack levels required when called: 3
   944 ;; This function calls:
   945 ;;		___fleq
   946 ;;		___flmul
   947 ;;		___fltol
   948 ;;		___wmul
   949 ;;		___xxtofl
   950 ;;		_silencio
   951 ;;		_tocar_nota
   952 ;; This function is called by:
   953 ;;		_main
   954 ;; This function uses a non-reentrant model
   955 ;;
   956                           
   957                           	psect	text2
   958  007076                     __ptext2:
   959                           	callstack 0
   960  007076                     _cancion1:
   961                           	callstack 27
   962  007076                     
   963                           ;main.c: 102: for( j = 0; j < 44; j ++){
   964  007076  0E00               	movlw	0
   965  007078  6E5A               	movwf	(_j+1)^0,c
   966  00707A  0E00               	movlw	0
   967  00707C  6E59               	movwf	_j^0,c
   968  00707E                     l64:
   969                           
   970                           ;main.c: 104:      if (PORTBbits.RB1 == 1) {
   971  00707E  A281               	btfss	129,1,c	;volatile
   972  007080  EF44  F038         	goto	u2321
   973  007084  EF46  F038         	goto	u2320
   974  007088                     u2321:
   975  007088  EF51  F038         	goto	l2125
   976  00708C                     u2320:
   977  00708C                     l67:
   978  00708C  B281               	btfsc	129,1,c	;volatile
   979  00708E  EF4B  F038         	goto	u2331
   980  007092  EF4D  F038         	goto	u2330
   981  007096                     u2331:
   982  007096  EF46  F038         	goto	l67
   983  00709A                     u2330:
   984  00709A                     
   985                           ;main.c: 106:             j = 45;
   986  00709A  0E00               	movlw	0
   987  00709C  6E5A               	movwf	(_j+1)^0,c
   988  00709E  0E2D               	movlw	45
   989  0070A0  6E59               	movwf	_j^0,c
   990  0070A2                     l2125:
   991                           
   992                           ;main.c: 109:     if (PORTBbits.RB0 == 1) {
   993  0070A2  A081               	btfss	129,0,c	;volatile
   994  0070A4  EF56  F038         	goto	u2341
   995  0070A8  EF58  F038         	goto	u2340
   996  0070AC                     u2341:
   997  0070AC  EF61  F038         	goto	l2131
   998  0070B0                     u2340:
   999  0070B0                     l71:
  1000  0070B0  B081               	btfsc	129,0,c	;volatile
  1001  0070B2  EF5D  F038         	goto	u2351
  1002  0070B6  EF5F  F038         	goto	u2350
  1003  0070BA                     u2351:
  1004  0070BA  EF58  F038         	goto	l71
  1005  0070BE                     u2350:
  1006  0070BE                     
  1007                           ;main.c: 111:             k ++;
  1008  0070BE  4A57               	infsnz	_k^0,f,c
  1009  0070C0  2A58               	incf	(_k+1)^0,f,c
  1010  0070C2                     l2131:
  1011                           
  1012                           ;main.c: 114:         if(k >= 3){
  1013  0070C2  BE58               	btfsc	(_k+1)^0,7,c
  1014  0070C4  EF6D  F038         	goto	u2361
  1015  0070C8  5058               	movf	(_k+1)^0,w,c
  1016  0070CA  E109               	bnz	u2360
  1017  0070CC  0E03               	movlw	3
  1018  0070CE  5C57               	subwf	_k^0,w,c
  1019  0070D0  A0D8               	btfss	status,0,c
  1020  0070D2  EF6D  F038         	goto	u2361
  1021  0070D6  EF6F  F038         	goto	u2360
  1022  0070DA                     u2361:
  1023  0070DA  EF87  F038         	goto	l2143
  1024  0070DE                     u2360:
  1025  0070DE                     
  1026                           ;main.c: 115:                 k = 0;
  1027  0070DE  0E00               	movlw	0
  1028  0070E0  6E58               	movwf	(_k+1)^0,c
  1029  0070E2  0E00               	movlw	0
  1030  0070E4  6E57               	movwf	_k^0,c
  1031                           
  1032                           ;main.c: 116:             }
  1033  0070E6  EFA1  F038         	goto	l2145
  1034  0070EA                     l2135:
  1035                           
  1036                           ;main.c: 120:                     vel = 250;
  1037  0070EA  0E00               	movlw	0
  1038  0070EC  6E5C               	movwf	(_vel+1)^0,c
  1039  0070EE  0EFA               	movlw	250
  1040  0070F0  6E5B               	movwf	_vel^0,c
  1041                           
  1042                           ;main.c: 121:                     break;
  1043  0070F2  EFA1  F038         	goto	l2145
  1044  0070F6                     l2137:
  1045                           
  1046                           ;main.c: 124:                     vel = 500;
  1047  0070F6  0E01               	movlw	1
  1048  0070F8  6E5C               	movwf	(_vel+1)^0,c
  1049  0070FA  0EF4               	movlw	244
  1050  0070FC  6E5B               	movwf	_vel^0,c
  1051                           
  1052                           ;main.c: 125:                     break;
  1053  0070FE  EFA1  F038         	goto	l2145
  1054  007102                     l2139:
  1055                           
  1056                           ;main.c: 128:                     vel = 750;
  1057  007102  0E02               	movlw	2
  1058  007104  6E5C               	movwf	(_vel+1)^0,c
  1059  007106  0EEE               	movlw	238
  1060  007108  6E5B               	movwf	_vel^0,c
  1061                           
  1062                           ;main.c: 129:                     break;
  1063  00710A  EFA1  F038         	goto	l2145
  1064  00710E                     l2143:
  1065  00710E  C057  F03F         	movff	_k,??_cancion1
  1066  007112  C058  F040         	movff	_k+1,??_cancion1+1
  1067                           
  1068                           ; Switch on 2 bytes has been partitioned into a top level switch of size 1, and 1 sub-sw
      +                          itches
  1069                           ; Switch size 1, requested type "simple"
  1070                           ; Number of cases is 1, Range of values is 0 to 0
  1071                           ; switch strategies available:
  1072                           ; Name         Instructions Cycles
  1073                           ; simple_byte            4     3 (average)
  1074                           ;	Chosen strategy is simple_byte
  1075  007116  5040               	movf	(??_cancion1+1)^0,w,c
  1076  007118  0A00               	xorlw	0	; case 0
  1077  00711A  B4D8               	btfsc	status,2,c
  1078  00711C  EF92  F038         	goto	l2211
  1079  007120  EFA1  F038         	goto	l2145
  1080  007124                     l2211:
  1081                           
  1082                           ; Switch size 1, requested type "simple"
  1083                           ; Number of cases is 3, Range of values is 0 to 2
  1084                           ; switch strategies available:
  1085                           ; Name         Instructions Cycles
  1086                           ; simple_byte           10     6 (average)
  1087                           ;	Chosen strategy is simple_byte
  1088  007124  503F               	movf	??_cancion1^0,w,c
  1089  007126  0A00               	xorlw	0	; case 0
  1090  007128  B4D8               	btfsc	status,2,c
  1091  00712A  EF75  F038         	goto	l2135
  1092  00712E  0A01               	xorlw	1	; case 1
  1093  007130  B4D8               	btfsc	status,2,c
  1094  007132  EF7B  F038         	goto	l2137
  1095  007136  0A03               	xorlw	3	; case 2
  1096  007138  B4D8               	btfsc	status,2,c
  1097  00713A  EF81  F038         	goto	l2139
  1098  00713E  EFA1  F038         	goto	l2145
  1099  007142                     l2145:
  1100                           
  1101                           ;main.c: 134:         if(cancion[j][2] == 1){
  1102  007142  C059  F001         	movff	_j,___wmul@multiplier
  1103  007146  C05A  F002         	movff	_j+1,___wmul@multiplier+1
  1104  00714A  0E00               	movlw	0
  1105  00714C  6E04               	movwf	(___wmul@multiplicand+1)^0,c
  1106  00714E  0E0C               	movlw	12
  1107  007150  6E03               	movwf	___wmul@multiplicand^0,c
  1108  007152  EC37  F033         	call	___wmul	;wreg free
  1109  007156  0EF8               	movlw	low (_cancion+8)
  1110  007158  2401               	addwf	?___wmul^0,w,c
  1111  00715A  6ED9               	movwf	fsr2l,c
  1112  00715C  0E05               	movlw	high (_cancion+8)
  1113  00715E  2002               	addwfc	(?___wmul+1)^0,w,c
  1114  007160  6EDA               	movwf	fsr2h,c
  1115  007162  CFDE F007          	movff	postinc2,___fleq@ff1
  1116  007166  CFDE F008          	movff	postinc2,___fleq@ff1+1
  1117  00716A  CFDE F009          	movff	postinc2,___fleq@ff1+2
  1118  00716E  CFDE F00A          	movff	postinc2,___fleq@ff1+3
  1119  007172  0E00               	movlw	0
  1120  007174  6E0B               	movwf	___fleq@ff2^0,c
  1121  007176  0E00               	movlw	0
  1122  007178  6E0C               	movwf	(___fleq@ff2+1)^0,c
  1123  00717A  0E80               	movlw	128
  1124  00717C  6E0D               	movwf	(___fleq@ff2+2)^0,c
  1125  00717E  0E3F               	movlw	63
  1126  007180  6E0E               	movwf	(___fleq@ff2+3)^0,c
  1127  007182  EC96  F033         	call	___fleq	;wreg free
  1128  007186  A0D8               	btfss	status,0,c
  1129  007188  EFC8  F038         	goto	u2371
  1130  00718C  EFCA  F038         	goto	u2370
  1131  007190                     u2371:
  1132  007190  EF26  F039         	goto	l2149
  1133  007194                     u2370:
  1134  007194                     
  1135                           ;main.c: 135:             tocar_nota(vel*cancion[j][0],cancion[j][1]);
  1136  007194  0E00               	movlw	0
  1137  007196  6E04               	movwf	(___wmul@multiplicand+1)^0,c
  1138  007198  0E0C               	movlw	12
  1139  00719A  6E03               	movwf	___wmul@multiplicand^0,c
  1140  00719C  C059  F001         	movff	_j,___wmul@multiplier
  1141  0071A0  C05A  F002         	movff	_j+1,___wmul@multiplier+1
  1142  0071A4  EC37  F033         	call	___wmul	;wreg free
  1143  0071A8  0EF0               	movlw	low _cancion
  1144  0071AA  2401               	addwf	?___wmul^0,w,c
  1145  0071AC  6ED9               	movwf	fsr2l,c
  1146  0071AE  0E05               	movlw	high _cancion
  1147  0071B0  2002               	addwfc	(?___wmul+1)^0,w,c
  1148  0071B2  6EDA               	movwf	fsr2h,c
  1149  0071B4  CFDE F013          	movff	postinc2,___flmul@a
  1150  0071B8  CFDE F014          	movff	postinc2,___flmul@a+1
  1151  0071BC  CFDE F015          	movff	postinc2,___flmul@a+2
  1152  0071C0  CFDE F016          	movff	postinc2,___flmul@a+3
  1153  0071C4  C05B  F001         	movff	_vel,___xxtofl@val
  1154  0071C8  C05C  F002         	movff	_vel+1,___xxtofl@val+1
  1155  0071CC  0E00               	movlw	0
  1156  0071CE  BE02               	btfsc	(___xxtofl@val+1)^0,7,c
  1157  0071D0  0EFF               	movlw	-1
  1158  0071D2  6E03               	movwf	(___xxtofl@val+2)^0,c
  1159  0071D4  6E04               	movwf	(___xxtofl@val+3)^0,c
  1160  0071D6  0E01               	movlw	1
  1161  0071D8  EC59  F036         	call	___xxtofl
  1162  0071DC  C001  F00F         	movff	?___xxtofl,___flmul@b
  1163  0071E0  C002  F010         	movff	?___xxtofl+1,___flmul@b+1
  1164  0071E4  C003  F011         	movff	?___xxtofl+2,___flmul@b+2
  1165  0071E8  C004  F012         	movff	?___xxtofl+3,___flmul@b+3
  1166  0071EC  EC8B  F03B         	call	___flmul	;wreg free
  1167  0071F0  C00F  F028         	movff	?___flmul,___fltol@f1
  1168  0071F4  C010  F029         	movff	?___flmul+1,___fltol@f1+1
  1169  0071F8  C011  F02A         	movff	?___flmul+2,___fltol@f1+2
  1170  0071FC  C012  F02B         	movff	?___flmul+3,___fltol@f1+3
  1171  007200  EC66  F034         	call	___fltol	;wreg free
  1172  007204  C028  F041         	movff	?___fltol,_cancion1$882
  1173  007208  C029  F042         	movff	?___fltol+1,_cancion1$882+1
  1174                           
  1175                           ;main.c: 135:             tocar_nota(vel*cancion[j][0],cancion[j][1]);
  1176  00720C  C041  F032         	movff	_cancion1$882,tocar_nota@duracion
  1177  007210  C042  F033         	movff	_cancion1$882+1,tocar_nota@duracion+1
  1178  007214  C059  F001         	movff	_j,___wmul@multiplier
  1179  007218  C05A  F002         	movff	_j+1,___wmul@multiplier+1
  1180  00721C  0E00               	movlw	0
  1181  00721E  6E04               	movwf	(___wmul@multiplicand+1)^0,c
  1182  007220  0E0C               	movlw	12
  1183  007222  6E03               	movwf	___wmul@multiplicand^0,c
  1184  007224  EC37  F033         	call	___wmul	;wreg free
  1185  007228  0EF4               	movlw	low (_cancion+4)
  1186  00722A  2401               	addwf	?___wmul^0,w,c
  1187  00722C  6ED9               	movwf	fsr2l,c
  1188  00722E  0E05               	movlw	high (_cancion+4)
  1189  007230  2002               	addwfc	(?___wmul+1)^0,w,c
  1190  007232  6EDA               	movwf	fsr2h,c
  1191  007234  CFDE F034          	movff	postinc2,tocar_nota@tfrec
  1192  007238  CFDE F035          	movff	postinc2,tocar_nota@tfrec+1
  1193  00723C  CFDE F036          	movff	postinc2,tocar_nota@tfrec+2
  1194  007240  CFDE F037          	movff	postinc2,tocar_nota@tfrec+3
  1195  007244  ECA1  F035         	call	_tocar_nota	;wreg free
  1196                           
  1197                           ;main.c: 136:         }
  1198  007248  EFA9  F039         	goto	l2153
  1199  00724C                     l2149:
  1200  00724C  C059  F001         	movff	_j,___wmul@multiplier
  1201  007250  C05A  F002         	movff	_j+1,___wmul@multiplier+1
  1202  007254  0E00               	movlw	0
  1203  007256  6E04               	movwf	(___wmul@multiplicand+1)^0,c
  1204  007258  0E0C               	movlw	12
  1205  00725A  6E03               	movwf	___wmul@multiplicand^0,c
  1206  00725C  EC37  F033         	call	___wmul	;wreg free
  1207  007260  0EF8               	movlw	low (_cancion+8)
  1208  007262  2401               	addwf	?___wmul^0,w,c
  1209  007264  6ED9               	movwf	fsr2l,c
  1210  007266  0E05               	movlw	high (_cancion+8)
  1211  007268  2002               	addwfc	(?___wmul+1)^0,w,c
  1212  00726A  6EDA               	movwf	fsr2h,c
  1213  00726C  CFDE F007          	movff	postinc2,___fleq@ff1
  1214  007270  CFDE F008          	movff	postinc2,___fleq@ff1+1
  1215  007274  CFDE F009          	movff	postinc2,___fleq@ff1+2
  1216  007278  CFDE F00A          	movff	postinc2,___fleq@ff1+3
  1217  00727C  0E00               	movlw	0
  1218  00727E  6E0B               	movwf	___fleq@ff2^0,c
  1219  007280  0E00               	movlw	0
  1220  007282  6E0C               	movwf	(___fleq@ff2+1)^0,c
  1221  007284  0E00               	movlw	0
  1222  007286  6E0D               	movwf	(___fleq@ff2+2)^0,c
  1223  007288  0E00               	movlw	0
  1224  00728A  6E0E               	movwf	(___fleq@ff2+3)^0,c
  1225  00728C  EC96  F033         	call	___fleq	;wreg free
  1226  007290  A0D8               	btfss	status,0,c
  1227  007292  EF4D  F039         	goto	u2381
  1228  007296  EF4F  F039         	goto	u2380
  1229  00729A                     u2381:
  1230  00729A  EFA9  F039         	goto	l2153
  1231  00729E                     u2380:
  1232  00729E                     
  1233                           ;main.c: 139:             silencio(vel*cancion[j][0],cancion[j][1]);
  1234  00729E  0E00               	movlw	0
  1235  0072A0  6E04               	movwf	(___wmul@multiplicand+1)^0,c
  1236  0072A2  0E0C               	movlw	12
  1237  0072A4  6E03               	movwf	___wmul@multiplicand^0,c
  1238  0072A6  C059  F001         	movff	_j,___wmul@multiplier
  1239  0072AA  C05A  F002         	movff	_j+1,___wmul@multiplier+1
  1240  0072AE  EC37  F033         	call	___wmul	;wreg free
  1241  0072B2  0EF0               	movlw	low _cancion
  1242  0072B4  2401               	addwf	?___wmul^0,w,c
  1243  0072B6  6ED9               	movwf	fsr2l,c
  1244  0072B8  0E05               	movlw	high _cancion
  1245  0072BA  2002               	addwfc	(?___wmul+1)^0,w,c
  1246  0072BC  6EDA               	movwf	fsr2h,c
  1247  0072BE  CFDE F013          	movff	postinc2,___flmul@a
  1248  0072C2  CFDE F014          	movff	postinc2,___flmul@a+1
  1249  0072C6  CFDE F015          	movff	postinc2,___flmul@a+2
  1250  0072CA  CFDE F016          	movff	postinc2,___flmul@a+3
  1251  0072CE  C05B  F001         	movff	_vel,___xxtofl@val
  1252  0072D2  C05C  F002         	movff	_vel+1,___xxtofl@val+1
  1253  0072D6  0E00               	movlw	0
  1254  0072D8  BE02               	btfsc	(___xxtofl@val+1)^0,7,c
  1255  0072DA  0EFF               	movlw	-1
  1256  0072DC  6E03               	movwf	(___xxtofl@val+2)^0,c
  1257  0072DE  6E04               	movwf	(___xxtofl@val+3)^0,c
  1258  0072E0  0E01               	movlw	1
  1259  0072E2  EC59  F036         	call	___xxtofl
  1260  0072E6  C001  F00F         	movff	?___xxtofl,___flmul@b
  1261  0072EA  C002  F010         	movff	?___xxtofl+1,___flmul@b+1
  1262  0072EE  C003  F011         	movff	?___xxtofl+2,___flmul@b+2
  1263  0072F2  C004  F012         	movff	?___xxtofl+3,___flmul@b+3
  1264  0072F6  EC8B  F03B         	call	___flmul	;wreg free
  1265  0072FA  C00F  F028         	movff	?___flmul,___fltol@f1
  1266  0072FE  C010  F029         	movff	?___flmul+1,___fltol@f1+1
  1267  007302  C011  F02A         	movff	?___flmul+2,___fltol@f1+2
  1268  007306  C012  F02B         	movff	?___flmul+3,___fltol@f1+3
  1269  00730A  EC66  F034         	call	___fltol	;wreg free
  1270  00730E  C028  F043         	movff	?___fltol,_cancion1$883
  1271  007312  C029  F044         	movff	?___fltol+1,_cancion1$883+1
  1272                           
  1273                           ;main.c: 139:             silencio(vel*cancion[j][0],cancion[j][1]);
  1274  007316  C043  F032         	movff	_cancion1$883,silencio@duracion
  1275  00731A  C044  F033         	movff	_cancion1$883+1,silencio@duracion+1
  1276  00731E  C059  F001         	movff	_j,___wmul@multiplier
  1277  007322  C05A  F002         	movff	_j+1,___wmul@multiplier+1
  1278  007326  0E00               	movlw	0
  1279  007328  6E04               	movwf	(___wmul@multiplicand+1)^0,c
  1280  00732A  0E0C               	movlw	12
  1281  00732C  6E03               	movwf	___wmul@multiplicand^0,c
  1282  00732E  EC37  F033         	call	___wmul	;wreg free
  1283  007332  0EF4               	movlw	low (_cancion+4)
  1284  007334  2401               	addwf	?___wmul^0,w,c
  1285  007336  6ED9               	movwf	fsr2l,c
  1286  007338  0E05               	movlw	high (_cancion+4)
  1287  00733A  2002               	addwfc	(?___wmul+1)^0,w,c
  1288  00733C  6EDA               	movwf	fsr2h,c
  1289  00733E  CFDE F034          	movff	postinc2,silencio@tfrec
  1290  007342  CFDE F035          	movff	postinc2,silencio@tfrec+1
  1291  007346  CFDE F036          	movff	postinc2,silencio@tfrec+2
  1292  00734A  CFDE F037          	movff	postinc2,silencio@tfrec+3
  1293  00734E  ECE9  F034         	call	_silencio	;wreg free
  1294  007352                     l2153:
  1295                           
  1296                           ;main.c: 141:     }
  1297  007352  4A59               	infsnz	_j^0,f,c
  1298  007354  2A5A               	incf	(_j+1)^0,f,c
  1299  007356  BE5A               	btfsc	(_j+1)^0,7,c
  1300  007358  EFB7  F039         	goto	u2391
  1301  00735C  505A               	movf	(_j+1)^0,w,c
  1302  00735E  E109               	bnz	u2390
  1303  007360  0E2C               	movlw	44
  1304  007362  5C59               	subwf	_j^0,w,c
  1305  007364  A0D8               	btfss	status,0,c
  1306  007366  EFB7  F039         	goto	u2391
  1307  00736A  EFB9  F039         	goto	u2390
  1308  00736E                     u2391:
  1309  00736E  EF3F  F038         	goto	l64
  1310  007372                     u2390:
  1311  007372                     
  1312                           ;main.c: 142:   l = 0;
  1313  007372  0E00               	movlw	0
  1314  007374  6E56               	movwf	(_l+1)^0,c
  1315  007376  0E00               	movlw	0
  1316  007378  6E55               	movwf	_l^0,c
  1317  00737A  0012               	return		;funcret
  1318  00737C                     __end_of_cancion1:
  1319                           	callstack 0
  1320                           
  1321 ;; *************** function _tocar_nota *****************
  1322 ;; Defined at:
  1323 ;;		line 23 in file "main.c"
  1324 ;; Parameters:    Size  Location     Type
  1325 ;;  duracion        2   49[COMRAM] int 
  1326 ;;  tfrec           4   51[COMRAM] float 
  1327 ;; Auto vars:     Size  Location     Type
  1328 ;;  duracion2       2   60[COMRAM] int 
  1329 ;; Return value:  Size  Location     Type
  1330 ;;                  1    wreg      void 
  1331 ;; Registers used:
  1332 ;;		wreg, status,2, status,0, cstack
  1333 ;; Tracked objects:
  1334 ;;		On entry : 0/0
  1335 ;;		On exit  : 0/0
  1336 ;;		Unchanged: 0/0
  1337 ;; Data sizes:     COMRAM   BANK0   BANK1   BANK2   BANK3   BANK4   BANK5   BANK6   BANK7
  1338 ;;      Params:         6       0       0       0       0       0       0       0       0
  1339 ;;      Locals:         6       0       0       0       0       0       0       0       0
  1340 ;;      Temps:          1       0       0       0       0       0       0       0       0
  1341 ;;      Totals:        13       0       0       0       0       0       0       0       0
  1342 ;;Total ram usage:       13 bytes
  1343 ;; Hardware stack levels used: 1
  1344 ;; Hardware stack levels required when called: 2
  1345 ;; This function calls:
  1346 ;;		___fldiv
  1347 ;;		___flsub
  1348 ;;		___fltol
  1349 ;;		___xxtofl
  1350 ;; This function is called by:
  1351 ;;		_cancion1
  1352 ;; This function uses a non-reentrant model
  1353 ;;
  1354                           
  1355                           	psect	text3
  1356  006B42                     __ptext3:
  1357                           	callstack 0
  1358  006B42                     _tocar_nota:
  1359                           	callstack 27
  1360  006B42                     
  1361                           ;main.c: 25:      int duracion2;;main.c: 26:      duracion2 = (int)duracion/tfrec;
  1362  006B42  C034  F013         	movff	tocar_nota@tfrec,___fldiv@a
  1363  006B46  C035  F014         	movff	tocar_nota@tfrec+1,___fldiv@a+1
  1364  006B4A  C036  F015         	movff	tocar_nota@tfrec+2,___fldiv@a+2
  1365  006B4E  C037  F016         	movff	tocar_nota@tfrec+3,___fldiv@a+3
  1366  006B52  C032  F001         	movff	tocar_nota@duracion,___xxtofl@val
  1367  006B56  C033  F002         	movff	tocar_nota@duracion+1,___xxtofl@val+1
  1368  006B5A  0E00               	movlw	0
  1369  006B5C  BE02               	btfsc	(___xxtofl@val+1)^0,7,c
  1370  006B5E  0EFF               	movlw	-1
  1371  006B60  6E03               	movwf	(___xxtofl@val+2)^0,c
  1372  006B62  6E04               	movwf	(___xxtofl@val+3)^0,c
  1373  006B64  0E01               	movlw	1
  1374  006B66  EC59  F036         	call	___xxtofl
  1375  006B6A  C001  F00F         	movff	?___xxtofl,___fldiv@b
  1376  006B6E  C002  F010         	movff	?___xxtofl+1,___fldiv@b+1
  1377  006B72  C003  F011         	movff	?___xxtofl+2,___fldiv@b+2
  1378  006B76  C004  F012         	movff	?___xxtofl+3,___fldiv@b+3
  1379  006B7A  ECBE  F039         	call	___fldiv	;wreg free
  1380  006B7E  C00F  F028         	movff	?___fldiv,___fltol@f1
  1381  006B82  C010  F029         	movff	?___fldiv+1,___fltol@f1+1
  1382  006B86  C011  F02A         	movff	?___fldiv+2,___fltol@f1+2
  1383  006B8A  C012  F02B         	movff	?___fldiv+3,___fltol@f1+3
  1384  006B8E  EC66  F034         	call	___fltol	;wreg free
  1385  006B92  C028  F03D         	movff	?___fltol,tocar_nota@duracion2
  1386  006B96  C029  F03E         	movff	?___fltol+1,tocar_nota@duracion2+1
  1387                           
  1388                           ;main.c: 27:      tfrec = 255-((tfrec/2)/(.0002*128));
  1389  006B9A  0E00               	movlw	0
  1390  006B9C  6E13               	movwf	___fldiv@a^0,c
  1391  006B9E  0E00               	movlw	0
  1392  006BA0  6E14               	movwf	(___fldiv@a+1)^0,c
  1393  006BA2  0E00               	movlw	0
  1394  006BA4  6E15               	movwf	(___fldiv@a+2)^0,c
  1395  006BA6  0E40               	movlw	64
  1396  006BA8  6E16               	movwf	(___fldiv@a+3)^0,c
  1397  006BAA  C034  F00F         	movff	tocar_nota@tfrec,___fldiv@b
  1398  006BAE  C035  F010         	movff	tocar_nota@tfrec+1,___fldiv@b+1
  1399  006BB2  C036  F011         	movff	tocar_nota@tfrec+2,___fldiv@b+2
  1400  006BB6  C037  F012         	movff	tocar_nota@tfrec+3,___fldiv@b+3
  1401  006BBA  ECBE  F039         	call	___fldiv	;wreg free
  1402  006BBE  C00F  F039         	movff	?___fldiv,_tocar_nota$880
  1403  006BC2  C010  F03A         	movff	?___fldiv+1,_tocar_nota$880+1
  1404  006BC6  C011  F03B         	movff	?___fldiv+2,_tocar_nota$880+2
  1405  006BCA  C012  F03C         	movff	?___fldiv+3,_tocar_nota$880+3
  1406                           
  1407                           ;main.c: 27:      tfrec = 255-((tfrec/2)/(.0002*128));
  1408  006BCE  0E00               	movlw	0
  1409  006BD0  6E28               	movwf	___flsub@b^0,c
  1410  006BD2  0E00               	movlw	0
  1411  006BD4  6E29               	movwf	(___flsub@b+1)^0,c
  1412  006BD6  0E7F               	movlw	127
  1413  006BD8  6E2A               	movwf	(___flsub@b+2)^0,c
  1414  006BDA  0E43               	movlw	67
  1415  006BDC  6E2B               	movwf	(___flsub@b+3)^0,c
  1416  006BDE  0E17               	movlw	23
  1417  006BE0  6E13               	movwf	___fldiv@a^0,c
  1418  006BE2  0EB7               	movlw	183
  1419  006BE4  6E14               	movwf	(___fldiv@a+1)^0,c
  1420  006BE6  0ED1               	movlw	209
  1421  006BE8  6E15               	movwf	(___fldiv@a+2)^0,c
  1422  006BEA  0E3C               	movlw	60
  1423  006BEC  6E16               	movwf	(___fldiv@a+3)^0,c
  1424  006BEE  C039  F00F         	movff	_tocar_nota$880,___fldiv@b
  1425  006BF2  C03A  F010         	movff	_tocar_nota$880+1,___fldiv@b+1
  1426  006BF6  C03B  F011         	movff	_tocar_nota$880+2,___fldiv@b+2
  1427  006BFA  C03C  F012         	movff	_tocar_nota$880+3,___fldiv@b+3
  1428  006BFE  ECBE  F039         	call	___fldiv	;wreg free
  1429  006C02  C00F  F02C         	movff	?___fldiv,___flsub@a
  1430  006C06  C010  F02D         	movff	?___fldiv+1,___flsub@a+1
  1431  006C0A  C011  F02E         	movff	?___fldiv+2,___flsub@a+2
  1432  006C0E  C012  F02F         	movff	?___fldiv+3,___flsub@a+3
  1433  006C12  EC4A  F033         	call	___flsub	;wreg free
  1434  006C16  C028  F034         	movff	?___flsub,tocar_nota@tfrec
  1435  006C1A  C029  F035         	movff	?___flsub+1,tocar_nota@tfrec+1
  1436  006C1E  C02A  F036         	movff	?___flsub+2,tocar_nota@tfrec+2
  1437  006C22  C02B  F037         	movff	?___flsub+3,tocar_nota@tfrec+3
  1438  006C26                     
  1439                           ;main.c: 29:        for(b=0;b<duracion2;b++){
  1440  006C26  0E00               	movlw	0
  1441  006C28  6E52               	movwf	(_b+1)^0,c
  1442  006C2A  0E00               	movlw	0
  1443  006C2C  6E51               	movwf	_b^0,c
  1444  006C2E  EF49  F036         	goto	l1949
  1445  006C32                     l36:
  1446                           
  1447                           ;main.c: 31:             PORTAbits.RA0 = 1;
  1448  006C32  8080               	bsf	128,0,c	;volatile
  1449  006C34                     
  1450                           ;main.c: 32:            TMR0 = tfrec;
  1451  006C34  C034  F028         	movff	tocar_nota@tfrec,___fltol@f1
  1452  006C38  C035  F029         	movff	tocar_nota@tfrec+1,___fltol@f1+1
  1453  006C3C  C036  F02A         	movff	tocar_nota@tfrec+2,___fltol@f1+2
  1454  006C40  C037  F02B         	movff	tocar_nota@tfrec+3,___fltol@f1+3
  1455  006C44  EC66  F034         	call	___fltol	;wreg free
  1456  006C48  C028  FFD6         	movff	?___fltol,4054	;volatile
  1457  006C4C  C029  FFD7         	movff	?___fltol+1,4055	;volatile
  1458  006C50                     l37:
  1459  006C50  A4F2               	btfss	242,2,c	;volatile
  1460  006C52  EF2D  F036         	goto	u2041
  1461  006C56  EF2F  F036         	goto	u2040
  1462  006C5A                     u2041:
  1463  006C5A  EF28  F036         	goto	l37
  1464  006C5E                     u2040:
  1465  006C5E                     
  1466                           ;main.c: 34:            INTCONbits.TMR0IF=0;
  1467  006C5E  94F2               	bcf	242,2,c	;volatile
  1468                           
  1469                           ;main.c: 36:         PORTAbits.RA0=0;
  1470  006C60  9080               	bcf	128,0,c	;volatile
  1471  006C62                     
  1472                           ;main.c: 37:          TMR0 = tfrec;
  1473  006C62  C034  F028         	movff	tocar_nota@tfrec,___fltol@f1
  1474  006C66  C035  F029         	movff	tocar_nota@tfrec+1,___fltol@f1+1
  1475  006C6A  C036  F02A         	movff	tocar_nota@tfrec+2,___fltol@f1+2
  1476  006C6E  C037  F02B         	movff	tocar_nota@tfrec+3,___fltol@f1+3
  1477  006C72  EC66  F034         	call	___fltol	;wreg free
  1478  006C76  C028  FFD6         	movff	?___fltol,4054	;volatile
  1479  006C7A  C029  FFD7         	movff	?___fltol+1,4055	;volatile
  1480  006C7E                     l40:
  1481  006C7E  A4F2               	btfss	242,2,c	;volatile
  1482  006C80  EF44  F036         	goto	u2051
  1483  006C84  EF46  F036         	goto	u2050
  1484  006C88                     u2051:
  1485  006C88  EF3F  F036         	goto	l40
  1486  006C8C                     u2050:
  1487  006C8C                     
  1488                           ;main.c: 39:          INTCONbits.TMR0IF=0;
  1489  006C8C  94F2               	bcf	242,2,c	;volatile
  1490  006C8E                     
  1491                           ;main.c: 40: }
  1492  006C8E  4A51               	infsnz	_b^0,f,c
  1493  006C90  2A52               	incf	(_b+1)^0,f,c
  1494  006C92                     l1949:
  1495  006C92  503D               	movf	tocar_nota@duracion2^0,w,c
  1496  006C94  5C51               	subwf	_b^0,w,c
  1497  006C96  5052               	movf	(_b+1)^0,w,c
  1498  006C98  0A80               	xorlw	128
  1499  006C9A  6E38               	movwf	??_tocar_nota^0,c
  1500  006C9C  503E               	movf	(tocar_nota@duracion2+1)^0,w,c
  1501  006C9E  0A80               	xorlw	128
  1502  006CA0  5838               	subwfb	??_tocar_nota^0,w,c
  1503  006CA2  A0D8               	btfss	status,0,c
  1504  006CA4  EF56  F036         	goto	u2061
  1505  006CA8  EF58  F036         	goto	u2060
  1506  006CAC                     u2061:
  1507  006CAC  EF19  F036         	goto	l36
  1508  006CB0                     u2060:
  1509  006CB0  0012               	return		;funcret
  1510  006CB2                     __end_of_tocar_nota:
  1511                           	callstack 0
  1512                           
  1513 ;; *************** function _silencio *****************
  1514 ;; Defined at:
  1515 ;;		line 43 in file "main.c"
  1516 ;; Parameters:    Size  Location     Type
  1517 ;;  duracion        2   49[COMRAM] int 
  1518 ;;  tfrec           4   51[COMRAM] float 
  1519 ;; Auto vars:     Size  Location     Type
  1520 ;;		None
  1521 ;; Return value:  Size  Location     Type
  1522 ;;                  1    wreg      void 
  1523 ;; Registers used:
  1524 ;;		wreg, status,2, status,0, cstack
  1525 ;; Tracked objects:
  1526 ;;		On entry : 0/0
  1527 ;;		On exit  : 0/0
  1528 ;;		Unchanged: 0/0
  1529 ;; Data sizes:     COMRAM   BANK0   BANK1   BANK2   BANK3   BANK4   BANK5   BANK6   BANK7
  1530 ;;      Params:         6       0       0       0       0       0       0       0       0
  1531 ;;      Locals:         4       0       0       0       0       0       0       0       0
  1532 ;;      Temps:          1       0       0       0       0       0       0       0       0
  1533 ;;      Totals:        11       0       0       0       0       0       0       0       0
  1534 ;;Total ram usage:       11 bytes
  1535 ;; Hardware stack levels used: 1
  1536 ;; Hardware stack levels required when called: 2
  1537 ;; This function calls:
  1538 ;;		___fldiv
  1539 ;;		___flsub
  1540 ;;		___fltol
  1541 ;;		___xxtofl
  1542 ;; This function is called by:
  1543 ;;		_cancion1
  1544 ;; This function uses a non-reentrant model
  1545 ;;
  1546                           
  1547                           	psect	text4
  1548  0069D2                     __ptext4:
  1549                           	callstack 0
  1550  0069D2                     _silencio:
  1551                           	callstack 27
  1552  0069D2                     
  1553                           ;main.c: 45:      duracion = duracion/tfrec;
  1554  0069D2  C034  F013         	movff	silencio@tfrec,___fldiv@a
  1555  0069D6  C035  F014         	movff	silencio@tfrec+1,___fldiv@a+1
  1556  0069DA  C036  F015         	movff	silencio@tfrec+2,___fldiv@a+2
  1557  0069DE  C037  F016         	movff	silencio@tfrec+3,___fldiv@a+3
  1558  0069E2  C032  F001         	movff	silencio@duracion,___xxtofl@val
  1559  0069E6  C033  F002         	movff	silencio@duracion+1,___xxtofl@val+1
  1560  0069EA  0E00               	movlw	0
  1561  0069EC  BE02               	btfsc	(___xxtofl@val+1)^0,7,c
  1562  0069EE  0EFF               	movlw	-1
  1563  0069F0  6E03               	movwf	(___xxtofl@val+2)^0,c
  1564  0069F2  6E04               	movwf	(___xxtofl@val+3)^0,c
  1565  0069F4  0E01               	movlw	1
  1566  0069F6  EC59  F036         	call	___xxtofl
  1567  0069FA  C001  F00F         	movff	?___xxtofl,___fldiv@b
  1568  0069FE  C002  F010         	movff	?___xxtofl+1,___fldiv@b+1
  1569  006A02  C003  F011         	movff	?___xxtofl+2,___fldiv@b+2
  1570  006A06  C004  F012         	movff	?___xxtofl+3,___fldiv@b+3
  1571  006A0A  ECBE  F039         	call	___fldiv	;wreg free
  1572  006A0E  C00F  F028         	movff	?___fldiv,___fltol@f1
  1573  006A12  C010  F029         	movff	?___fldiv+1,___fltol@f1+1
  1574  006A16  C011  F02A         	movff	?___fldiv+2,___fltol@f1+2
  1575  006A1A  C012  F02B         	movff	?___fldiv+3,___fltol@f1+3
  1576  006A1E  EC66  F034         	call	___fltol	;wreg free
  1577  006A22  C028  F032         	movff	?___fltol,silencio@duracion
  1578  006A26  C029  F033         	movff	?___fltol+1,silencio@duracion+1
  1579                           
  1580                           ;main.c: 46:      tfrec = 255-((tfrec/2)/(.0002*128));
  1581  006A2A  0E00               	movlw	0
  1582  006A2C  6E13               	movwf	___fldiv@a^0,c
  1583  006A2E  0E00               	movlw	0
  1584  006A30  6E14               	movwf	(___fldiv@a+1)^0,c
  1585  006A32  0E00               	movlw	0
  1586  006A34  6E15               	movwf	(___fldiv@a+2)^0,c
  1587  006A36  0E40               	movlw	64
  1588  006A38  6E16               	movwf	(___fldiv@a+3)^0,c
  1589  006A3A  C034  F00F         	movff	silencio@tfrec,___fldiv@b
  1590  006A3E  C035  F010         	movff	silencio@tfrec+1,___fldiv@b+1
  1591  006A42  C036  F011         	movff	silencio@tfrec+2,___fldiv@b+2
  1592  006A46  C037  F012         	movff	silencio@tfrec+3,___fldiv@b+3
  1593  006A4A  ECBE  F039         	call	___fldiv	;wreg free
  1594  006A4E  C00F  F039         	movff	?___fldiv,_silencio$881
  1595  006A52  C010  F03A         	movff	?___fldiv+1,_silencio$881+1
  1596  006A56  C011  F03B         	movff	?___fldiv+2,_silencio$881+2
  1597  006A5A  C012  F03C         	movff	?___fldiv+3,_silencio$881+3
  1598                           
  1599                           ;main.c: 46:      tfrec = 255-((tfrec/2)/(.0002*128));
  1600  006A5E  0E00               	movlw	0
  1601  006A60  6E28               	movwf	___flsub@b^0,c
  1602  006A62  0E00               	movlw	0
  1603  006A64  6E29               	movwf	(___flsub@b+1)^0,c
  1604  006A66  0E7F               	movlw	127
  1605  006A68  6E2A               	movwf	(___flsub@b+2)^0,c
  1606  006A6A  0E43               	movlw	67
  1607  006A6C  6E2B               	movwf	(___flsub@b+3)^0,c
  1608  006A6E  0E17               	movlw	23
  1609  006A70  6E13               	movwf	___fldiv@a^0,c
  1610  006A72  0EB7               	movlw	183
  1611  006A74  6E14               	movwf	(___fldiv@a+1)^0,c
  1612  006A76  0ED1               	movlw	209
  1613  006A78  6E15               	movwf	(___fldiv@a+2)^0,c
  1614  006A7A  0E3C               	movlw	60
  1615  006A7C  6E16               	movwf	(___fldiv@a+3)^0,c
  1616  006A7E  C039  F00F         	movff	_silencio$881,___fldiv@b
  1617  006A82  C03A  F010         	movff	_silencio$881+1,___fldiv@b+1
  1618  006A86  C03B  F011         	movff	_silencio$881+2,___fldiv@b+2
  1619  006A8A  C03C  F012         	movff	_silencio$881+3,___fldiv@b+3
  1620  006A8E  ECBE  F039         	call	___fldiv	;wreg free
  1621  006A92  C00F  F02C         	movff	?___fldiv,___flsub@a
  1622  006A96  C010  F02D         	movff	?___fldiv+1,___flsub@a+1
  1623  006A9A  C011  F02E         	movff	?___fldiv+2,___flsub@a+2
  1624  006A9E  C012  F02F         	movff	?___fldiv+3,___flsub@a+3
  1625  006AA2  EC4A  F033         	call	___flsub	;wreg free
  1626  006AA6  C028  F034         	movff	?___flsub,silencio@tfrec
  1627  006AAA  C029  F035         	movff	?___flsub+1,silencio@tfrec+1
  1628  006AAE  C02A  F036         	movff	?___flsub+2,silencio@tfrec+2
  1629  006AB2  C02B  F037         	movff	?___flsub+3,silencio@tfrec+3
  1630  006AB6                     
  1631                           ;main.c: 48:        for(b=0;b<duracion;b++){
  1632  006AB6  0E00               	movlw	0
  1633  006AB8  6E52               	movwf	(_b+1)^0,c
  1634  006ABA  0E00               	movlw	0
  1635  006ABC  6E51               	movwf	_b^0,c
  1636  006ABE  EF91  F035         	goto	l1961
  1637  006AC2                     l48:
  1638                           
  1639                           ;main.c: 49:             PORTAbits.RA0 = 0;
  1640  006AC2  9080               	bcf	128,0,c	;volatile
  1641  006AC4                     
  1642                           ;main.c: 50:            TMR0 = tfrec;
  1643  006AC4  C034  F028         	movff	silencio@tfrec,___fltol@f1
  1644  006AC8  C035  F029         	movff	silencio@tfrec+1,___fltol@f1+1
  1645  006ACC  C036  F02A         	movff	silencio@tfrec+2,___fltol@f1+2
  1646  006AD0  C037  F02B         	movff	silencio@tfrec+3,___fltol@f1+3
  1647  006AD4  EC66  F034         	call	___fltol	;wreg free
  1648  006AD8  C028  FFD6         	movff	?___fltol,4054	;volatile
  1649  006ADC  C029  FFD7         	movff	?___fltol+1,4055	;volatile
  1650  006AE0                     l49:
  1651  006AE0  A4F2               	btfss	242,2,c	;volatile
  1652  006AE2  EF75  F035         	goto	u2071
  1653  006AE6  EF77  F035         	goto	u2070
  1654  006AEA                     u2071:
  1655  006AEA  EF70  F035         	goto	l49
  1656  006AEE                     u2070:
  1657  006AEE                     
  1658                           ;main.c: 52:            INTCONbits.TMR0IF=0;
  1659  006AEE  94F2               	bcf	242,2,c	;volatile
  1660                           
  1661                           ;main.c: 54:         PORTAbits.RA0=0;
  1662  006AF0  9080               	bcf	128,0,c	;volatile
  1663  006AF2                     
  1664                           ;main.c: 55:          TMR0 = tfrec;
  1665  006AF2  C034  F028         	movff	silencio@tfrec,___fltol@f1
  1666  006AF6  C035  F029         	movff	silencio@tfrec+1,___fltol@f1+1
  1667  006AFA  C036  F02A         	movff	silencio@tfrec+2,___fltol@f1+2
  1668  006AFE  C037  F02B         	movff	silencio@tfrec+3,___fltol@f1+3
  1669  006B02  EC66  F034         	call	___fltol	;wreg free
  1670  006B06  C028  FFD6         	movff	?___fltol,4054	;volatile
  1671  006B0A  C029  FFD7         	movff	?___fltol+1,4055	;volatile
  1672  006B0E                     l52:
  1673  006B0E  A4F2               	btfss	242,2,c	;volatile
  1674  006B10  EF8C  F035         	goto	u2081
  1675  006B14  EF8E  F035         	goto	u2080
  1676  006B18                     u2081:
  1677  006B18  EF87  F035         	goto	l52
  1678  006B1C                     u2080:
  1679  006B1C                     
  1680                           ;main.c: 57:          INTCONbits.TMR0IF=0;
  1681  006B1C  94F2               	bcf	242,2,c	;volatile
  1682  006B1E                     
  1683                           ;main.c: 58: }
  1684  006B1E  4A51               	infsnz	_b^0,f,c
  1685  006B20  2A52               	incf	(_b+1)^0,f,c
  1686  006B22                     l1961:
  1687  006B22  5032               	movf	silencio@duracion^0,w,c
  1688  006B24  5C51               	subwf	_b^0,w,c
  1689  006B26  5052               	movf	(_b+1)^0,w,c
  1690  006B28  0A80               	xorlw	128
  1691  006B2A  6E38               	movwf	??_silencio^0,c
  1692  006B2C  5033               	movf	(silencio@duracion+1)^0,w,c
  1693  006B2E  0A80               	xorlw	128
  1694  006B30  5838               	subwfb	??_silencio^0,w,c
  1695  006B32  A0D8               	btfss	status,0,c
  1696  006B34  EF9E  F035         	goto	u2091
  1697  006B38  EFA0  F035         	goto	u2090
  1698  006B3C                     u2091:
  1699  006B3C  EF61  F035         	goto	l48
  1700  006B40                     u2090:
  1701  006B40  0012               	return		;funcret
  1702  006B42                     __end_of_silencio:
  1703                           	callstack 0
  1704                           
  1705 ;; *************** function ___xxtofl *****************
  1706 ;; Defined at:
  1707 ;;		line 10 in file "C:\Program Files\Microchip\xc8\v2.32\pic\sources\c99\common\xxtofl.c"
  1708 ;; Parameters:    Size  Location     Type
  1709 ;;  sign            1    wreg     unsigned char 
  1710 ;;  val             4    0[COMRAM] long 
  1711 ;; Auto vars:     Size  Location     Type
  1712 ;;  sign            1    8[COMRAM] unsigned char 
  1713 ;;  arg             4   10[COMRAM] unsigned long 
  1714 ;;  exp             1    9[COMRAM] unsigned char 
  1715 ;; Return value:  Size  Location     Type
  1716 ;;                  4    0[COMRAM] unsigned char 
  1717 ;; Registers used:
  1718 ;;		wreg, status,2, status,0
  1719 ;; Tracked objects:
  1720 ;;		On entry : 0/0
  1721 ;;		On exit  : 0/0
  1722 ;;		Unchanged: 0/0
  1723 ;; Data sizes:     COMRAM   BANK0   BANK1   BANK2   BANK3   BANK4   BANK5   BANK6   BANK7
  1724 ;;      Params:         4       0       0       0       0       0       0       0       0
  1725 ;;      Locals:         6       0       0       0       0       0       0       0       0
  1726 ;;      Temps:          4       0       0       0       0       0       0       0       0
  1727 ;;      Totals:        14       0       0       0       0       0       0       0       0
  1728 ;;Total ram usage:       14 bytes
  1729 ;; Hardware stack levels used: 1
  1730 ;; This function calls:
  1731 ;;		Nothing
  1732 ;; This function is called by:
  1733 ;;		_tocar_nota
  1734 ;;		_silencio
  1735 ;;		_cancion1
  1736 ;; This function uses a non-reentrant model
  1737 ;;
  1738                           
  1739                           	psect	text5
  1740  006CB2                     __ptext5:
  1741                           	callstack 0
  1742  006CB2                     ___xxtofl:
  1743                           	callstack 28
  1744                           
  1745                           ;incstack = 0
  1746                           ;___xxtofl@sign stored from wreg
  1747  006CB2  6E09               	movwf	___xxtofl@sign^0,c
  1748  006CB4  5009               	movf	___xxtofl@sign^0,w,c
  1749  006CB6  B4D8               	btfsc	status,2,c
  1750  006CB8  EF60  F036         	goto	u1941
  1751  006CBC  EF62  F036         	goto	u1940
  1752  006CC0                     u1941:
  1753  006CC0  EF84  F036         	goto	l773
  1754  006CC4                     u1940:
  1755  006CC4  BE04               	btfsc	(___xxtofl@val+3)^0,7,c
  1756  006CC6  EF69  F036         	goto	u1950
  1757  006CCA  EF67  F036         	goto	u1951
  1758  006CCE                     u1951:
  1759  006CCE  EF84  F036         	goto	l773
  1760  006CD2                     u1950:
  1761  006CD2  C001  F005         	movff	___xxtofl@val,??___xxtofl
  1762  006CD6  C002  F006         	movff	___xxtofl@val+1,??___xxtofl+1
  1763  006CDA  C003  F007         	movff	___xxtofl@val+2,??___xxtofl+2
  1764  006CDE  C004  F008         	movff	___xxtofl@val+3,??___xxtofl+3
  1765  006CE2  1E05               	comf	??___xxtofl^0,f,c
  1766  006CE4  1E06               	comf	(??___xxtofl+1)^0,f,c
  1767  006CE6  1E07               	comf	(??___xxtofl+2)^0,f,c
  1768  006CE8  1E08               	comf	(??___xxtofl+3)^0,f,c
  1769  006CEA  2A05               	incf	??___xxtofl^0,f,c
  1770  006CEC  0E00               	movlw	0
  1771  006CEE  2206               	addwfc	(??___xxtofl+1)^0,f,c
  1772  006CF0  2207               	addwfc	(??___xxtofl+2)^0,f,c
  1773  006CF2  2208               	addwfc	(??___xxtofl+3)^0,f,c
  1774  006CF4  C005  F00B         	movff	??___xxtofl,___xxtofl@arg
  1775  006CF8  C006  F00C         	movff	??___xxtofl+1,___xxtofl@arg+1
  1776  006CFC  C007  F00D         	movff	??___xxtofl+2,___xxtofl@arg+2
  1777  006D00  C008  F00E         	movff	??___xxtofl+3,___xxtofl@arg+3
  1778  006D04  EF8C  F036         	goto	l1899
  1779  006D08                     l773:
  1780  006D08  C001  F00B         	movff	___xxtofl@val,___xxtofl@arg
  1781  006D0C  C002  F00C         	movff	___xxtofl@val+1,___xxtofl@arg+1
  1782  006D10  C003  F00D         	movff	___xxtofl@val+2,___xxtofl@arg+2
  1783  006D14  C004  F00E         	movff	___xxtofl@val+3,___xxtofl@arg+3
  1784  006D18                     l1899:
  1785  006D18  5001               	movf	___xxtofl@val^0,w,c
  1786  006D1A  1002               	iorwf	(___xxtofl@val+1)^0,w,c
  1787  006D1C  1003               	iorwf	(___xxtofl@val+2)^0,w,c
  1788  006D1E  1004               	iorwf	(___xxtofl@val+3)^0,w,c
  1789  006D20  A4D8               	btfss	status,2,c
  1790  006D22  EF95  F036         	goto	u1961
  1791  006D26  EF97  F036         	goto	u1960
  1792  006D2A                     u1961:
  1793  006D2A  EFA1  F036         	goto	l1905
  1794  006D2E                     u1960:
  1795  006D2E  0E00               	movlw	0
  1796  006D30  6E01               	movwf	?___xxtofl^0,c
  1797  006D32  0E00               	movlw	0
  1798  006D34  6E02               	movwf	(?___xxtofl+1)^0,c
  1799  006D36  0E00               	movlw	0
  1800  006D38  6E03               	movwf	(?___xxtofl+2)^0,c
  1801  006D3A  0E00               	movlw	0
  1802  006D3C  6E04               	movwf	(?___xxtofl+3)^0,c
  1803  006D3E  EF32  F037         	goto	l776
  1804  006D42                     l1905:
  1805  006D42  0E96               	movlw	150
  1806  006D44  6E0A               	movwf	___xxtofl@exp^0,c
  1807  006D46  EFAB  F036         	goto	l1909
  1808  006D4A                     l1907:
  1809  006D4A  2A0A               	incf	___xxtofl@exp^0,f,c
  1810  006D4C  90D8               	bcf	status,0,c
  1811  006D4E  320E               	rrcf	(___xxtofl@arg+3)^0,f,c
  1812  006D50  320D               	rrcf	(___xxtofl@arg+2)^0,f,c
  1813  006D52  320C               	rrcf	(___xxtofl@arg+1)^0,f,c
  1814  006D54  320B               	rrcf	___xxtofl@arg^0,f,c
  1815  006D56                     l1909:
  1816  006D56  0E00               	movlw	0
  1817  006D58  140B               	andwf	___xxtofl@arg^0,w,c
  1818  006D5A  6E05               	movwf	??___xxtofl^0,c
  1819  006D5C  0E00               	movlw	0
  1820  006D5E  140C               	andwf	(___xxtofl@arg+1)^0,w,c
  1821  006D60  6E06               	movwf	(??___xxtofl+1)^0,c
  1822  006D62  0E00               	movlw	0
  1823  006D64  140D               	andwf	(___xxtofl@arg+2)^0,w,c
  1824  006D66  6E07               	movwf	(??___xxtofl+2)^0,c
  1825  006D68  0EFE               	movlw	254
  1826  006D6A  140E               	andwf	(___xxtofl@arg+3)^0,w,c
  1827  006D6C  6E08               	movwf	(??___xxtofl+3)^0,c
  1828  006D6E  5005               	movf	??___xxtofl^0,w,c
  1829  006D70  1006               	iorwf	(??___xxtofl+1)^0,w,c
  1830  006D72  1007               	iorwf	(??___xxtofl+2)^0,w,c
  1831  006D74  1008               	iorwf	(??___xxtofl+3)^0,w,c
  1832  006D76  A4D8               	btfss	status,2,c
  1833  006D78  EFC0  F036         	goto	u1971
  1834  006D7C  EFC2  F036         	goto	u1970
  1835  006D80                     u1971:
  1836  006D80  EFA5  F036         	goto	l1907
  1837  006D84                     u1970:
  1838  006D84  EFD0  F036         	goto	l780
  1839  006D88                     l1911:
  1840  006D88  2A0A               	incf	___xxtofl@exp^0,f,c
  1841  006D8A  0E01               	movlw	1
  1842  006D8C  260B               	addwf	___xxtofl@arg^0,f,c
  1843  006D8E  0E00               	movlw	0
  1844  006D90  220C               	addwfc	(___xxtofl@arg+1)^0,f,c
  1845  006D92  220D               	addwfc	(___xxtofl@arg+2)^0,f,c
  1846  006D94  220E               	addwfc	(___xxtofl@arg+3)^0,f,c
  1847  006D96  90D8               	bcf	status,0,c
  1848  006D98  320E               	rrcf	(___xxtofl@arg+3)^0,f,c
  1849  006D9A  320D               	rrcf	(___xxtofl@arg+2)^0,f,c
  1850  006D9C  320C               	rrcf	(___xxtofl@arg+1)^0,f,c
  1851  006D9E  320B               	rrcf	___xxtofl@arg^0,f,c
  1852  006DA0                     l780:
  1853  006DA0  0E00               	movlw	0
  1854  006DA2  140B               	andwf	___xxtofl@arg^0,w,c
  1855  006DA4  6E05               	movwf	??___xxtofl^0,c
  1856  006DA6  0E00               	movlw	0
  1857  006DA8  140C               	andwf	(___xxtofl@arg+1)^0,w,c
  1858  006DAA  6E06               	movwf	(??___xxtofl+1)^0,c
  1859  006DAC  0E00               	movlw	0
  1860  006DAE  140D               	andwf	(___xxtofl@arg+2)^0,w,c
  1861  006DB0  6E07               	movwf	(??___xxtofl+2)^0,c
  1862  006DB2  0EFF               	movlw	255
  1863  006DB4  140E               	andwf	(___xxtofl@arg+3)^0,w,c
  1864  006DB6  6E08               	movwf	(??___xxtofl+3)^0,c
  1865  006DB8  5005               	movf	??___xxtofl^0,w,c
  1866  006DBA  1006               	iorwf	(??___xxtofl+1)^0,w,c
  1867  006DBC  1007               	iorwf	(??___xxtofl+2)^0,w,c
  1868  006DBE  1008               	iorwf	(??___xxtofl+3)^0,w,c
  1869  006DC0  A4D8               	btfss	status,2,c
  1870  006DC2  EFE5  F036         	goto	u1981
  1871  006DC6  EFE7  F036         	goto	u1980
  1872  006DCA                     u1981:
  1873  006DCA  EFC4  F036         	goto	l1911
  1874  006DCE                     u1980:
  1875  006DCE  EFEF  F036         	goto	l1919
  1876  006DD2                     l1917:
  1877  006DD2  060A               	decf	___xxtofl@exp^0,f,c
  1878  006DD4  90D8               	bcf	status,0,c
  1879  006DD6  360B               	rlcf	___xxtofl@arg^0,f,c
  1880  006DD8  360C               	rlcf	(___xxtofl@arg+1)^0,f,c
  1881  006DDA  360D               	rlcf	(___xxtofl@arg+2)^0,f,c
  1882  006DDC  360E               	rlcf	(___xxtofl@arg+3)^0,f,c
  1883  006DDE                     l1919:
  1884  006DDE  BE0D               	btfsc	(___xxtofl@arg+2)^0,7,c
  1885  006DE0  EFF4  F036         	goto	u1991
  1886  006DE4  EFF6  F036         	goto	u1990
  1887  006DE8                     u1991:
  1888  006DE8  EFFE  F036         	goto	l787
  1889  006DEC                     u1990:
  1890  006DEC  0E02               	movlw	2
  1891  006DEE  600A               	cpfslt	___xxtofl@exp^0,c
  1892  006DF0  EFFC  F036         	goto	u2001
  1893  006DF4  EFFE  F036         	goto	u2000
  1894  006DF8                     u2001:
  1895  006DF8  EFE9  F036         	goto	l1917
  1896  006DFC                     u2000:
  1897  006DFC                     l787:
  1898  006DFC  B00A               	btfsc	___xxtofl@exp^0,0,c
  1899  006DFE  EF03  F037         	goto	u2011
  1900  006E02  EF05  F037         	goto	u2010
  1901  006E06                     u2011:
  1902  006E06  EF06  F037         	goto	l1925
  1903  006E0A                     u2010:
  1904  006E0A  9E0D               	bcf	(___xxtofl@arg+2)^0,7,c
  1905  006E0C                     l1925:
  1906  006E0C  90D8               	bcf	status,0,c
  1907  006E0E  320A               	rrcf	___xxtofl@exp^0,f,c
  1908  006E10  C00A  F005         	movff	___xxtofl@exp,??___xxtofl
  1909  006E14  6A06               	clrf	(??___xxtofl+1)^0,c
  1910  006E16  6A07               	clrf	(??___xxtofl+2)^0,c
  1911  006E18  6A08               	clrf	(??___xxtofl+3)^0,c
  1912  006E1A  C005  F008         	movff	??___xxtofl,??___xxtofl+3
  1913  006E1E  6A07               	clrf	(??___xxtofl+2)^0,c
  1914  006E20  6A06               	clrf	(??___xxtofl+1)^0,c
  1915  006E22  6A05               	clrf	??___xxtofl^0,c
  1916  006E24  5005               	movf	??___xxtofl^0,w,c
  1917  006E26  120B               	iorwf	___xxtofl@arg^0,f,c
  1918  006E28  5006               	movf	(??___xxtofl+1)^0,w,c
  1919  006E2A  120C               	iorwf	(___xxtofl@arg+1)^0,f,c
  1920  006E2C  5007               	movf	(??___xxtofl+2)^0,w,c
  1921  006E2E  120D               	iorwf	(___xxtofl@arg+2)^0,f,c
  1922  006E30  5008               	movf	(??___xxtofl+3)^0,w,c
  1923  006E32  120E               	iorwf	(___xxtofl@arg+3)^0,f,c
  1924  006E34  5009               	movf	___xxtofl@sign^0,w,c
  1925  006E36  B4D8               	btfsc	status,2,c
  1926  006E38  EF20  F037         	goto	u2021
  1927  006E3C  EF22  F037         	goto	u2020
  1928  006E40                     u2021:
  1929  006E40  EF2A  F037         	goto	l1935
  1930  006E44                     u2020:
  1931  006E44  BE04               	btfsc	(___xxtofl@val+3)^0,7,c
  1932  006E46  EF29  F037         	goto	u2030
  1933  006E4A  EF27  F037         	goto	u2031
  1934  006E4E                     u2031:
  1935  006E4E  EF2A  F037         	goto	l1935
  1936  006E52                     u2030:
  1937  006E52  8E0E               	bsf	(___xxtofl@arg+3)^0,7,c
  1938  006E54                     l1935:
  1939  006E54  C00B  F001         	movff	___xxtofl@arg,?___xxtofl
  1940  006E58  C00C  F002         	movff	___xxtofl@arg+1,?___xxtofl+1
  1941  006E5C  C00D  F003         	movff	___xxtofl@arg+2,?___xxtofl+2
  1942  006E60  C00E  F004         	movff	___xxtofl@arg+3,?___xxtofl+3
  1943  006E64                     l776:
  1944  006E64  0012               	return		;funcret
  1945  006E66                     __end_of___xxtofl:
  1946                           	callstack 0
  1947                           
  1948 ;; *************** function ___fltol *****************
  1949 ;; Defined at:
  1950 ;;		line 43 in file "C:\Program Files\Microchip\xc8\v2.32\pic\sources\c99\common\fltol.c"
  1951 ;; Parameters:    Size  Location     Type
  1952 ;;  f1              4   39[COMRAM] unsigned char 
  1953 ;; Auto vars:     Size  Location     Type
  1954 ;;  exp1            1   48[COMRAM] unsigned char 
  1955 ;;  sign1           1   47[COMRAM] unsigned char 
  1956 ;; Return value:  Size  Location     Type
  1957 ;;                  4   39[COMRAM] long 
  1958 ;; Registers used:
  1959 ;;		wreg, status,2, status,0
  1960 ;; Tracked objects:
  1961 ;;		On entry : 0/0
  1962 ;;		On exit  : 0/0
  1963 ;;		Unchanged: 0/0
  1964 ;; Data sizes:     COMRAM   BANK0   BANK1   BANK2   BANK3   BANK4   BANK5   BANK6   BANK7
  1965 ;;      Params:         4       0       0       0       0       0       0       0       0
  1966 ;;      Locals:         2       0       0       0       0       0       0       0       0
  1967 ;;      Temps:          4       0       0       0       0       0       0       0       0
  1968 ;;      Totals:        10       0       0       0       0       0       0       0       0
  1969 ;;Total ram usage:       10 bytes
  1970 ;; Hardware stack levels used: 1
  1971 ;; This function calls:
  1972 ;;		Nothing
  1973 ;; This function is called by:
  1974 ;;		_tocar_nota
  1975 ;;		_silencio
  1976 ;;		_cancion1
  1977 ;; This function uses a non-reentrant model
  1978 ;;
  1979                           
  1980                           	psect	text6
  1981  0068CC                     __ptext6:
  1982                           	callstack 0
  1983  0068CC                     ___fltol:
  1984                           	callstack 28
  1985  0068CC  342A               	rlcf	(___fltol@f1+2)^0,w,c
  1986  0068CE  342B               	rlcf	(___fltol@f1+3)^0,w,c
  1987  0068D0  6E31               	movwf	___fltol@exp1^0,c
  1988  0068D2  5031               	movf	___fltol@exp1^0,w,c
  1989  0068D4  A4D8               	btfss	status,2,c
  1990  0068D6  EF6F  F034         	goto	u1871
  1991  0068DA  EF71  F034         	goto	u1870
  1992  0068DE                     u1871:
  1993  0068DE  EF7B  F034         	goto	l1855
  1994  0068E2                     u1870:
  1995  0068E2                     l1851:
  1996  0068E2  0E00               	movlw	0
  1997  0068E4  6E28               	movwf	?___fltol^0,c
  1998  0068E6  0E00               	movlw	0
  1999  0068E8  6E29               	movwf	(?___fltol+1)^0,c
  2000  0068EA  0E00               	movlw	0
  2001  0068EC  6E2A               	movwf	(?___fltol+2)^0,c
  2002  0068EE  0E00               	movlw	0
  2003  0068F0  6E2B               	movwf	(?___fltol+3)^0,c
  2004  0068F2  EFE8  F034         	goto	l415
  2005  0068F6                     l1855:
  2006  0068F6  C028  F02C         	movff	___fltol@f1,??___fltol
  2007  0068FA  C029  F02D         	movff	___fltol@f1+1,??___fltol+1
  2008  0068FE  C02A  F02E         	movff	___fltol@f1+2,??___fltol+2
  2009  006902  C02B  F02F         	movff	___fltol@f1+3,??___fltol+3
  2010  006906  0E20               	movlw	32
  2011  006908  EF8B  F034         	goto	u1880
  2012  00690C                     u1885:
  2013  00690C  90D8               	bcf	status,0,c
  2014  00690E  322F               	rrcf	(??___fltol+3)^0,f,c
  2015  006910  322E               	rrcf	(??___fltol+2)^0,f,c
  2016  006912  322D               	rrcf	(??___fltol+1)^0,f,c
  2017  006914  322C               	rrcf	??___fltol^0,f,c
  2018  006916                     u1880:
  2019  006916  2EE8               	decfsz	wreg,f,c
  2020  006918  EF86  F034         	goto	u1885
  2021  00691C  502C               	movf	??___fltol^0,w,c
  2022  00691E  6E30               	movwf	___fltol@sign1^0,c
  2023  006920  8E2A               	bsf	(___fltol@f1+2)^0,7,c
  2024  006922  0EFF               	movlw	255
  2025  006924  1628               	andwf	___fltol@f1^0,f,c
  2026  006926  0EFF               	movlw	255
  2027  006928  1629               	andwf	(___fltol@f1+1)^0,f,c
  2028  00692A  0EFF               	movlw	255
  2029  00692C  162A               	andwf	(___fltol@f1+2)^0,f,c
  2030  00692E  0E00               	movlw	0
  2031  006930  162B               	andwf	(___fltol@f1+3)^0,f,c
  2032  006932  0E96               	movlw	150
  2033  006934  5E31               	subwf	___fltol@exp1^0,f,c
  2034  006936  BE31               	btfsc	___fltol@exp1^0,7,c
  2035  006938  EFA2  F034         	goto	u1890
  2036  00693C  EFA0  F034         	goto	u1891
  2037  006940                     u1891:
  2038  006940  EFB8  F034         	goto	l1875
  2039  006944                     u1890:
  2040  006944  5031               	movf	___fltol@exp1^0,w,c
  2041  006946  0A80               	xorlw	128
  2042  006948  0F97               	addlw	151
  2043  00694A  B0D8               	btfsc	status,0,c
  2044  00694C  EFAA  F034         	goto	u1901
  2045  006950  EFAC  F034         	goto	u1900
  2046  006954                     u1901:
  2047  006954  EFAE  F034         	goto	l1871
  2048  006958                     u1900:
  2049  006958  EF71  F034         	goto	l1851
  2050  00695C                     l1871:
  2051  00695C  90D8               	bcf	status,0,c
  2052  00695E  322B               	rrcf	(___fltol@f1+3)^0,f,c
  2053  006960  322A               	rrcf	(___fltol@f1+2)^0,f,c
  2054  006962  3229               	rrcf	(___fltol@f1+1)^0,f,c
  2055  006964  3228               	rrcf	___fltol@f1^0,f,c
  2056  006966  3E31               	incfsz	___fltol@exp1^0,f,c
  2057  006968  EFAE  F034         	goto	l1871
  2058  00696C  EFD0  F034         	goto	l1885
  2059  006970                     l1875:
  2060  006970  0E1F               	movlw	31
  2061  006972  6431               	cpfsgt	___fltol@exp1^0,c
  2062  006974  EFBE  F034         	goto	u1911
  2063  006978  EFC0  F034         	goto	u1910
  2064  00697C                     u1911:
  2065  00697C  EFC8  F034         	goto	l1883
  2066  006980                     u1910:
  2067  006980  EF71  F034         	goto	l1851
  2068  006984                     l1881:
  2069  006984  90D8               	bcf	status,0,c
  2070  006986  3628               	rlcf	___fltol@f1^0,f,c
  2071  006988  3629               	rlcf	(___fltol@f1+1)^0,f,c
  2072  00698A  362A               	rlcf	(___fltol@f1+2)^0,f,c
  2073  00698C  362B               	rlcf	(___fltol@f1+3)^0,f,c
  2074  00698E  0631               	decf	___fltol@exp1^0,f,c
  2075  006990                     l1883:
  2076  006990  5031               	movf	___fltol@exp1^0,w,c
  2077  006992  A4D8               	btfss	status,2,c
  2078  006994  EFCE  F034         	goto	u1921
  2079  006998  EFD0  F034         	goto	u1920
  2080  00699C                     u1921:
  2081  00699C  EFC2  F034         	goto	l1881
  2082  0069A0                     u1920:
  2083  0069A0                     l1885:
  2084  0069A0  5030               	movf	___fltol@sign1^0,w,c
  2085  0069A2  B4D8               	btfsc	status,2,c
  2086  0069A4  EFD6  F034         	goto	u1931
  2087  0069A8  EFD8  F034         	goto	u1930
  2088  0069AC                     u1931:
  2089  0069AC  EFE0  F034         	goto	l1889
  2090  0069B0                     u1930:
  2091  0069B0  1E2B               	comf	(___fltol@f1+3)^0,f,c
  2092  0069B2  1E2A               	comf	(___fltol@f1+2)^0,f,c
  2093  0069B4  1E29               	comf	(___fltol@f1+1)^0,f,c
  2094  0069B6  6C28               	negf	___fltol@f1^0,c
  2095  0069B8  0E00               	movlw	0
  2096  0069BA  2229               	addwfc	(___fltol@f1+1)^0,f,c
  2097  0069BC  222A               	addwfc	(___fltol@f1+2)^0,f,c
  2098  0069BE  222B               	addwfc	(___fltol@f1+3)^0,f,c
  2099  0069C0                     l1889:
  2100  0069C0  C028  F028         	movff	___fltol@f1,?___fltol
  2101  0069C4  C029  F029         	movff	___fltol@f1+1,?___fltol+1
  2102  0069C8  C02A  F02A         	movff	___fltol@f1+2,?___fltol+2
  2103  0069CC  C02B  F02B         	movff	___fltol@f1+3,?___fltol+3
  2104  0069D0                     l415:
  2105  0069D0  0012               	return		;funcret
  2106  0069D2                     __end_of___fltol:
  2107                           	callstack 0
  2108                           
  2109 ;; *************** function ___flsub *****************
  2110 ;; Defined at:
  2111 ;;		line 245 in file "C:\Program Files\Microchip\xc8\v2.32\pic\sources\c99\common\sprcadd.c"
  2112 ;; Parameters:    Size  Location     Type
  2113 ;;  b               4   39[COMRAM] long 
  2114 ;;  a               4   43[COMRAM] long 
  2115 ;; Auto vars:     Size  Location     Type
  2116 ;;		None
  2117 ;; Return value:  Size  Location     Type
  2118 ;;                  4   39[COMRAM] long 
  2119 ;; Registers used:
  2120 ;;		wreg, status,2, status,0, cstack
  2121 ;; Tracked objects:
  2122 ;;		On entry : 0/0
  2123 ;;		On exit  : 0/0
  2124 ;;		Unchanged: 0/0
  2125 ;; Data sizes:     COMRAM   BANK0   BANK1   BANK2   BANK3   BANK4   BANK5   BANK6   BANK7
  2126 ;;      Params:         8       0       0       0       0       0       0       0       0
  2127 ;;      Locals:         0       0       0       0       0       0       0       0       0
  2128 ;;      Temps:          0       0       0       0       0       0       0       0       0
  2129 ;;      Totals:         8       0       0       0       0       0       0       0       0
  2130 ;;Total ram usage:        8 bytes
  2131 ;; Hardware stack levels used: 1
  2132 ;; Hardware stack levels required when called: 1
  2133 ;; This function calls:
  2134 ;;		___fladd
  2135 ;; This function is called by:
  2136 ;;		_tocar_nota
  2137 ;;		_silencio
  2138 ;; This function uses a non-reentrant model
  2139 ;;
  2140                           
  2141                           	psect	text7
  2142  006694                     __ptext7:
  2143                           	callstack 0
  2144  006694                     ___flsub:
  2145                           	callstack 27
  2146  006694  0E00               	movlw	0
  2147  006696  1A2C               	xorwf	___flsub@a^0,f,c
  2148  006698  0E00               	movlw	0
  2149  00669A  1A2D               	xorwf	(___flsub@a+1)^0,f,c
  2150  00669C  0E00               	movlw	0
  2151  00669E  1A2E               	xorwf	(___flsub@a+2)^0,f,c
  2152  0066A0  0E80               	movlw	128
  2153  0066A2  1A2F               	xorwf	(___flsub@a+3)^0,f,c
  2154  0066A4  C028  F001         	movff	___flsub@b,___fladd@b
  2155  0066A8  C029  F002         	movff	___flsub@b+1,___fladd@b+1
  2156  0066AC  C02A  F003         	movff	___flsub@b+2,___fladd@b+2
  2157  0066B0  C02B  F004         	movff	___flsub@b+3,___fladd@b+3
  2158  0066B4  C02C  F005         	movff	___flsub@a,___fladd@a
  2159  0066B8  C02D  F006         	movff	___flsub@a+1,___fladd@a+1
  2160  0066BC  C02E  F007         	movff	___flsub@a+2,___fladd@a+2
  2161  0066C0  C02F  F008         	movff	___flsub@a+3,___fladd@a+3
  2162  0066C4  ECA0  F03D         	call	___fladd	;wreg free
  2163  0066C8  C001  F028         	movff	?___fladd,?___flsub
  2164  0066CC  C002  F029         	movff	?___fladd+1,?___flsub+1
  2165  0066D0  C003  F02A         	movff	?___fladd+2,?___flsub+2
  2166  0066D4  C004  F02B         	movff	?___fladd+3,?___flsub+3
  2167  0066D8  0012               	return		;funcret
  2168  0066DA                     __end_of___flsub:
  2169                           	callstack 0
  2170                           
  2171 ;; *************** function ___fladd *****************
  2172 ;; Defined at:
  2173 ;;		line 10 in file "C:\Program Files\Microchip\xc8\v2.32\pic\sources\c99\common\sprcadd.c"
  2174 ;; Parameters:    Size  Location     Type
  2175 ;;  b               4    0[COMRAM] long 
  2176 ;;  a               4    4[COMRAM] long 
  2177 ;; Auto vars:     Size  Location     Type
  2178 ;;  grs             1   15[COMRAM] unsigned char 
  2179 ;;  bexp            1   14[COMRAM] unsigned char 
  2180 ;;  aexp            1   13[COMRAM] unsigned char 
  2181 ;;  signs           1   12[COMRAM] unsigned char 
  2182 ;; Return value:  Size  Location     Type
  2183 ;;                  4    0[COMRAM] unsigned char 
  2184 ;; Registers used:
  2185 ;;		wreg, status,2, status,0
  2186 ;; Tracked objects:
  2187 ;;		On entry : 0/0
  2188 ;;		On exit  : 0/0
  2189 ;;		Unchanged: 0/0
  2190 ;; Data sizes:     COMRAM   BANK0   BANK1   BANK2   BANK3   BANK4   BANK5   BANK6   BANK7
  2191 ;;      Params:         8       0       0       0       0       0       0       0       0
  2192 ;;      Locals:         4       0       0       0       0       0       0       0       0
  2193 ;;      Temps:          4       0       0       0       0       0       0       0       0
  2194 ;;      Totals:        16       0       0       0       0       0       0       0       0
  2195 ;;Total ram usage:       16 bytes
  2196 ;; Hardware stack levels used: 1
  2197 ;; This function calls:
  2198 ;;		Nothing
  2199 ;; This function is called by:
  2200 ;;		___flsub
  2201 ;; This function uses a non-reentrant model
  2202 ;;
  2203                           
  2204                           	psect	text8
  2205  007B40                     __ptext8:
  2206                           	callstack 0
  2207  007B40                     ___fladd:
  2208                           	callstack 27
  2209  007B40  5004               	movf	(___fladd@b+3)^0,w,c
  2210  007B42  0B80               	andlw	128
  2211  007B44  6E0D               	movwf	___fladd@signs^0,c
  2212  007B46  5004               	movf	(___fladd@b+3)^0,w,c
  2213  007B48  2404               	addwf	(___fladd@b+3)^0,w,c
  2214  007B4A  6E0F               	movwf	___fladd@bexp^0,c
  2215  007B4C  AE03               	btfss	(___fladd@b+2)^0,7,c
  2216  007B4E  EFAB  F03D         	goto	u1251
  2217  007B52  EFAD  F03D         	goto	u1250
  2218  007B56                     u1251:
  2219  007B56  EFAE  F03D         	goto	l1509
  2220  007B5A                     u1250:
  2221  007B5A  800F               	bsf	___fladd@bexp^0,0,c
  2222  007B5C                     l1509:
  2223  007B5C  500F               	movf	___fladd@bexp^0,w,c
  2224  007B5E  B4D8               	btfsc	status,2,c
  2225  007B60  EFB4  F03D         	goto	u1261
  2226  007B64  EFB6  F03D         	goto	u1260
  2227  007B68                     u1261:
  2228  007B68  EFCB  F03D         	goto	l1519
  2229  007B6C                     u1260:
  2230  007B6C  280F               	incf	___fladd@bexp^0,w,c
  2231  007B6E  A4D8               	btfss	status,2,c
  2232  007B70  EFBC  F03D         	goto	u1271
  2233  007B74  EFBE  F03D         	goto	u1270
  2234  007B78                     u1271:
  2235  007B78  EFC6  F03D         	goto	l1515
  2236  007B7C                     u1270:
  2237  007B7C  0E00               	movlw	0
  2238  007B7E  6E01               	movwf	___fladd@b^0,c
  2239  007B80  0E00               	movlw	0
  2240  007B82  6E02               	movwf	(___fladd@b+1)^0,c
  2241  007B84  0E00               	movlw	0
  2242  007B86  6E03               	movwf	(___fladd@b+2)^0,c
  2243  007B88  0E00               	movlw	0
  2244  007B8A  6E04               	movwf	(___fladd@b+3)^0,c
  2245  007B8C                     l1515:
  2246  007B8C  8E03               	bsf	(___fladd@b+2)^0,7,c
  2247  007B8E  0E00               	movlw	0
  2248  007B90  6E04               	movwf	(___fladd@b+3)^0,c
  2249  007B92  EFD3  F03D         	goto	l1521
  2250  007B96                     l1519:
  2251  007B96  0E00               	movlw	0
  2252  007B98  6E01               	movwf	___fladd@b^0,c
  2253  007B9A  0E00               	movlw	0
  2254  007B9C  6E02               	movwf	(___fladd@b+1)^0,c
  2255  007B9E  0E00               	movlw	0
  2256  007BA0  6E03               	movwf	(___fladd@b+2)^0,c
  2257  007BA2  0E00               	movlw	0
  2258  007BA4  6E04               	movwf	(___fladd@b+3)^0,c
  2259  007BA6                     l1521:
  2260  007BA6  5008               	movf	(___fladd@a+3)^0,w,c
  2261  007BA8  0B80               	andlw	128
  2262  007BAA  6E0E               	movwf	___fladd@aexp^0,c
  2263  007BAC  500D               	movf	___fladd@signs^0,w,c
  2264  007BAE  180E               	xorwf	___fladd@aexp^0,w,c
  2265  007BB0  B4D8               	btfsc	status,2,c
  2266  007BB2  EFDD  F03D         	goto	u1281
  2267  007BB6  EFDF  F03D         	goto	u1280
  2268  007BBA                     u1281:
  2269  007BBA  EFE0  F03D         	goto	l1527
  2270  007BBE                     u1280:
  2271  007BBE  8C0D               	bsf	___fladd@signs^0,6,c
  2272  007BC0                     l1527:
  2273  007BC0  5008               	movf	(___fladd@a+3)^0,w,c
  2274  007BC2  2408               	addwf	(___fladd@a+3)^0,w,c
  2275  007BC4  6E0E               	movwf	___fladd@aexp^0,c
  2276  007BC6  AE07               	btfss	(___fladd@a+2)^0,7,c
  2277  007BC8  EFE8  F03D         	goto	u1291
  2278  007BCC  EFEA  F03D         	goto	u1290
  2279  007BD0                     u1291:
  2280  007BD0  EFEB  F03D         	goto	l1533
  2281  007BD4                     u1290:
  2282  007BD4  800E               	bsf	___fladd@aexp^0,0,c
  2283  007BD6                     l1533:
  2284  007BD6  500E               	movf	___fladd@aexp^0,w,c
  2285  007BD8  B4D8               	btfsc	status,2,c
  2286  007BDA  EFF1  F03D         	goto	u1301
  2287  007BDE  EFF3  F03D         	goto	u1300
  2288  007BE2                     u1301:
  2289  007BE2  EF08  F03E         	goto	l1543
  2290  007BE6                     u1300:
  2291  007BE6  280E               	incf	___fladd@aexp^0,w,c
  2292  007BE8  A4D8               	btfss	status,2,c
  2293  007BEA  EFF9  F03D         	goto	u1311
  2294  007BEE  EFFB  F03D         	goto	u1310
  2295  007BF2                     u1311:
  2296  007BF2  EF03  F03E         	goto	l1539
  2297  007BF6                     u1310:
  2298  007BF6  0E00               	movlw	0
  2299  007BF8  6E05               	movwf	___fladd@a^0,c
  2300  007BFA  0E00               	movlw	0
  2301  007BFC  6E06               	movwf	(___fladd@a+1)^0,c
  2302  007BFE  0E00               	movlw	0
  2303  007C00  6E07               	movwf	(___fladd@a+2)^0,c
  2304  007C02  0E00               	movlw	0
  2305  007C04  6E08               	movwf	(___fladd@a+3)^0,c
  2306  007C06                     l1539:
  2307  007C06  8E07               	bsf	(___fladd@a+2)^0,7,c
  2308  007C08  0E00               	movlw	0
  2309  007C0A  6E08               	movwf	(___fladd@a+3)^0,c
  2310  007C0C  EF10  F03E         	goto	l1545
  2311  007C10                     l1543:
  2312  007C10  0E00               	movlw	0
  2313  007C12  6E05               	movwf	___fladd@a^0,c
  2314  007C14  0E00               	movlw	0
  2315  007C16  6E06               	movwf	(___fladd@a+1)^0,c
  2316  007C18  0E00               	movlw	0
  2317  007C1A  6E07               	movwf	(___fladd@a+2)^0,c
  2318  007C1C  0E00               	movlw	0
  2319  007C1E  6E08               	movwf	(___fladd@a+3)^0,c
  2320  007C20                     l1545:
  2321  007C20  500F               	movf	___fladd@bexp^0,w,c
  2322  007C22  5C0E               	subwf	___fladd@aexp^0,w,c
  2323  007C24  B0D8               	btfsc	status,0,c
  2324  007C26  EF17  F03E         	goto	u1321
  2325  007C2A  EF19  F03E         	goto	u1320
  2326  007C2E                     u1321:
  2327  007C2E  EF40  F03E         	goto	l1581
  2328  007C32                     u1320:
  2329  007C32  AC0D               	btfss	___fladd@signs^0,6,c
  2330  007C34  EF1E  F03E         	goto	u1331
  2331  007C38  EF20  F03E         	goto	u1330
  2332  007C3C                     u1331:
  2333  007C3C  EF22  F03E         	goto	l1551
  2334  007C40                     u1330:
  2335  007C40  0E80               	movlw	128
  2336  007C42  1A0D               	xorwf	___fladd@signs^0,f,c
  2337  007C44                     l1551:
  2338  007C44  C00F  F010         	movff	___fladd@bexp,___fladd@grs
  2339  007C48  C00E  F00F         	movff	___fladd@aexp,___fladd@bexp
  2340  007C4C  C010  F00E         	movff	___fladd@grs,___fladd@aexp
  2341  007C50  C001  F010         	movff	___fladd@b,___fladd@grs
  2342  007C54  C005  F001         	movff	___fladd@a,___fladd@b
  2343  007C58  C010  F005         	movff	___fladd@grs,___fladd@a
  2344  007C5C  C002  F010         	movff	___fladd@b+1,___fladd@grs
  2345  007C60  C006  F002         	movff	___fladd@a+1,___fladd@b+1
  2346  007C64  C010  F006         	movff	___fladd@grs,___fladd@a+1
  2347  007C68  C003  F010         	movff	___fladd@b+2,___fladd@grs
  2348  007C6C  C007  F003         	movff	___fladd@a+2,___fladd@b+2
  2349  007C70  C010  F007         	movff	___fladd@grs,___fladd@a+2
  2350  007C74  C004  F010         	movff	___fladd@b+3,___fladd@grs
  2351  007C78  C008  F004         	movff	___fladd@a+3,___fladd@b+3
  2352  007C7C  C010  F008         	movff	___fladd@grs,___fladd@a+3
  2353  007C80                     l1581:
  2354  007C80  0E00               	movlw	0
  2355  007C82  6E10               	movwf	___fladd@grs^0,c
  2356  007C84  500F               	movf	___fladd@bexp^0,w,c
  2357  007C86  C00E  F009         	movff	___fladd@aexp,??___fladd
  2358  007C8A  6A0A               	clrf	(??___fladd+1)^0,c
  2359  007C8C  5E09               	subwf	??___fladd^0,f,c
  2360  007C8E  0E00               	movlw	0
  2361  007C90  5A0A               	subwfb	(??___fladd+1)^0,f,c
  2362  007C92  BE0A               	btfsc	(??___fladd+1)^0,7,c
  2363  007C94  EF55  F03E         	goto	u1341
  2364  007C98  500A               	movf	(??___fladd+1)^0,w,c
  2365  007C9A  E109               	bnz	u1340
  2366  007C9C  0E1A               	movlw	26
  2367  007C9E  5C09               	subwf	??___fladd^0,w,c
  2368  007CA0  A0D8               	btfss	status,0,c
  2369  007CA2  EF55  F03E         	goto	u1341
  2370  007CA6  EF57  F03E         	goto	u1340
  2371  007CAA                     u1341:
  2372  007CAA  EF8E  F03E         	goto	l647
  2373  007CAE                     u1340:
  2374  007CAE  5001               	movf	___fladd@b^0,w,c
  2375  007CB0  1002               	iorwf	(___fladd@b+1)^0,w,c
  2376  007CB2  1003               	iorwf	(___fladd@b+2)^0,w,c
  2377  007CB4  1004               	iorwf	(___fladd@b+3)^0,w,c
  2378  007CB6  A4D8               	btfss	status,2,c
  2379  007CB8  EF60  F03E         	goto	u1351
  2380  007CBC  EF63  F03E         	goto	u1350
  2381  007CC0                     u1351:
  2382  007CC0  0E01               	movlw	1
  2383  007CC2  EF64  F03E         	goto	u1360
  2384  007CC6                     u1350:
  2385  007CC6  0E00               	movlw	0
  2386  007CC8                     u1360:
  2387  007CC8  6E10               	movwf	___fladd@grs^0,c
  2388  007CCA  0E00               	movlw	0
  2389  007CCC  6E01               	movwf	___fladd@b^0,c
  2390  007CCE  0E00               	movlw	0
  2391  007CD0  6E02               	movwf	(___fladd@b+1)^0,c
  2392  007CD2  0E00               	movlw	0
  2393  007CD4  6E03               	movwf	(___fladd@b+2)^0,c
  2394  007CD6  0E00               	movlw	0
  2395  007CD8  6E04               	movwf	(___fladd@b+3)^0,c
  2396  007CDA  C00E  F00F         	movff	___fladd@aexp,___fladd@bexp
  2397  007CDE  EF97  F03E         	goto	l646
  2398  007CE2                     l648:
  2399  007CE2  A010               	btfss	___fladd@grs^0,0,c
  2400  007CE4  EF76  F03E         	goto	u1371
  2401  007CE8  EF78  F03E         	goto	u1370
  2402  007CEC                     u1371:
  2403  007CEC  EF7E  F03E         	goto	l1593
  2404  007CF0                     u1370:
  2405  007CF0  90D8               	bcf	status,0,c
  2406  007CF2  3010               	rrcf	___fladd@grs^0,w,c
  2407  007CF4  0901               	iorlw	1
  2408  007CF6  6E10               	movwf	___fladd@grs^0,c
  2409  007CF8  EF80  F03E         	goto	l1595
  2410  007CFC                     l1593:
  2411  007CFC  90D8               	bcf	status,0,c
  2412  007CFE  3210               	rrcf	___fladd@grs^0,f,c
  2413  007D00                     l1595:
  2414  007D00  A001               	btfss	___fladd@b^0,0,c
  2415  007D02  EF85  F03E         	goto	u1381
  2416  007D06  EF87  F03E         	goto	u1380
  2417  007D0A                     u1381:
  2418  007D0A  EF88  F03E         	goto	l1599
  2419  007D0E                     u1380:
  2420  007D0E  8E10               	bsf	___fladd@grs^0,7,c
  2421  007D10                     l1599:
  2422  007D10  3404               	rlcf	(___fladd@b+3)^0,w,c
  2423  007D12  3204               	rrcf	(___fladd@b+3)^0,f,c
  2424  007D14  3203               	rrcf	(___fladd@b+2)^0,f,c
  2425  007D16  3202               	rrcf	(___fladd@b+1)^0,f,c
  2426  007D18  3201               	rrcf	___fladd@b^0,f,c
  2427  007D1A  2A0F               	incf	___fladd@bexp^0,f,c
  2428  007D1C                     l647:
  2429  007D1C  500E               	movf	___fladd@aexp^0,w,c
  2430  007D1E  5C0F               	subwf	___fladd@bexp^0,w,c
  2431  007D20  A0D8               	btfss	status,0,c
  2432  007D22  EF95  F03E         	goto	u1391
  2433  007D26  EF97  F03E         	goto	u1390
  2434  007D2A                     u1391:
  2435  007D2A  EF71  F03E         	goto	l648
  2436  007D2E                     u1390:
  2437  007D2E                     l646:
  2438  007D2E  BC0D               	btfsc	___fladd@signs^0,6,c
  2439  007D30  EF9C  F03E         	goto	u1401
  2440  007D34  EF9E  F03E         	goto	u1400
  2441  007D38                     u1401:
  2442  007D38  EFDE  F03E         	goto	l1627
  2443  007D3C                     u1400:
  2444  007D3C  500F               	movf	___fladd@bexp^0,w,c
  2445  007D3E  A4D8               	btfss	status,2,c
  2446  007D40  EFA4  F03E         	goto	u1411
  2447  007D44  EFA6  F03E         	goto	u1410
  2448  007D48                     u1411:
  2449  007D48  EFB0  F03E         	goto	l1609
  2450  007D4C                     u1410:
  2451  007D4C  0E00               	movlw	0
  2452  007D4E  6E01               	movwf	?___fladd^0,c
  2453  007D50  0E00               	movlw	0
  2454  007D52  6E02               	movwf	(?___fladd+1)^0,c
  2455  007D54  0E00               	movlw	0
  2456  007D56  6E03               	movwf	(?___fladd+2)^0,c
  2457  007D58  0E00               	movlw	0
  2458  007D5A  6E04               	movwf	(?___fladd+3)^0,c
  2459  007D5C  EFFF  F03F         	goto	l655
  2460  007D60                     l1609:
  2461  007D60  5005               	movf	___fladd@a^0,w,c
  2462  007D62  2601               	addwf	___fladd@b^0,f,c
  2463  007D64  5006               	movf	(___fladd@a+1)^0,w,c
  2464  007D66  2202               	addwfc	(___fladd@b+1)^0,f,c
  2465  007D68  5007               	movf	(___fladd@a+2)^0,w,c
  2466  007D6A  2203               	addwfc	(___fladd@b+2)^0,f,c
  2467  007D6C  5008               	movf	(___fladd@a+3)^0,w,c
  2468  007D6E  2204               	addwfc	(___fladd@b+3)^0,f,c
  2469  007D70  A004               	btfss	(___fladd@b+3)^0,0,c
  2470  007D72  EFBD  F03E         	goto	u1421
  2471  007D76  EFBF  F03E         	goto	u1420
  2472  007D7A                     u1421:
  2473  007D7A  EF6B  F03F         	goto	l1663
  2474  007D7E                     u1420:
  2475  007D7E  A010               	btfss	___fladd@grs^0,0,c
  2476  007D80  EFC4  F03E         	goto	u1431
  2477  007D84  EFC6  F03E         	goto	u1430
  2478  007D88                     u1431:
  2479  007D88  EFCC  F03E         	goto	l1617
  2480  007D8C                     u1430:
  2481  007D8C  90D8               	bcf	status,0,c
  2482  007D8E  3010               	rrcf	___fladd@grs^0,w,c
  2483  007D90  0901               	iorlw	1
  2484  007D92  6E10               	movwf	___fladd@grs^0,c
  2485  007D94  EFCE  F03E         	goto	l1619
  2486  007D98                     l1617:
  2487  007D98  90D8               	bcf	status,0,c
  2488  007D9A  3210               	rrcf	___fladd@grs^0,f,c
  2489  007D9C                     l1619:
  2490  007D9C  A001               	btfss	___fladd@b^0,0,c
  2491  007D9E  EFD3  F03E         	goto	u1441
  2492  007DA2  EFD5  F03E         	goto	u1440
  2493  007DA6                     u1441:
  2494  007DA6  EFD6  F03E         	goto	l1623
  2495  007DAA                     u1440:
  2496  007DAA  8E10               	bsf	___fladd@grs^0,7,c
  2497  007DAC                     l1623:
  2498  007DAC  3404               	rlcf	(___fladd@b+3)^0,w,c
  2499  007DAE  3204               	rrcf	(___fladd@b+3)^0,f,c
  2500  007DB0  3203               	rrcf	(___fladd@b+2)^0,f,c
  2501  007DB2  3202               	rrcf	(___fladd@b+1)^0,f,c
  2502  007DB4  3201               	rrcf	___fladd@b^0,f,c
  2503  007DB6  2A0F               	incf	___fladd@bexp^0,f,c
  2504  007DB8  EF6B  F03F         	goto	l1663
  2505  007DBC                     l1627:
  2506  007DBC  5005               	movf	___fladd@a^0,w,c
  2507  007DBE  5C01               	subwf	___fladd@b^0,w,c
  2508  007DC0  5006               	movf	(___fladd@a+1)^0,w,c
  2509  007DC2  5802               	subwfb	(___fladd@b+1)^0,w,c
  2510  007DC4  5007               	movf	(___fladd@a+2)^0,w,c
  2511  007DC6  5803               	subwfb	(___fladd@b+2)^0,w,c
  2512  007DC8  5004               	movf	(___fladd@b+3)^0,w,c
  2513  007DCA  0A80               	xorlw	128
  2514  007DCC  6E09               	movwf	??___fladd^0,c
  2515  007DCE  5008               	movf	(___fladd@a+3)^0,w,c
  2516  007DD0  0A80               	xorlw	128
  2517  007DD2  5809               	subwfb	??___fladd^0,w,c
  2518  007DD4  B0D8               	btfsc	status,0,c
  2519  007DD6  EFEF  F03E         	goto	u1451
  2520  007DDA  EFF1  F03E         	goto	u1450
  2521  007DDE                     u1451:
  2522  007DDE  EF1C  F03F         	goto	l1637
  2523  007DE2                     u1450:
  2524  007DE2  5001               	movf	___fladd@b^0,w,c
  2525  007DE4  5C05               	subwf	___fladd@a^0,w,c
  2526  007DE6  6E09               	movwf	??___fladd^0,c
  2527  007DE8  5002               	movf	(___fladd@b+1)^0,w,c
  2528  007DEA  5806               	subwfb	(___fladd@a+1)^0,w,c
  2529  007DEC  6E0A               	movwf	(??___fladd+1)^0,c
  2530  007DEE  5003               	movf	(___fladd@b+2)^0,w,c
  2531  007DF0  5807               	subwfb	(___fladd@a+2)^0,w,c
  2532  007DF2  6E0B               	movwf	(??___fladd+2)^0,c
  2533  007DF4  5004               	movf	(___fladd@b+3)^0,w,c
  2534  007DF6  5808               	subwfb	(___fladd@a+3)^0,w,c
  2535  007DF8  6E0C               	movwf	(??___fladd+3)^0,c
  2536  007DFA  0EFF               	movlw	255
  2537  007DFC  2409               	addwf	??___fladd^0,w,c
  2538  007DFE  6E01               	movwf	___fladd@b^0,c
  2539  007E00  0EFF               	movlw	255
  2540  007E02  200A               	addwfc	(??___fladd+1)^0,w,c
  2541  007E04  6E02               	movwf	(___fladd@b+1)^0,c
  2542  007E06  0EFF               	movlw	255
  2543  007E08  200B               	addwfc	(??___fladd+2)^0,w,c
  2544  007E0A  6E03               	movwf	(___fladd@b+2)^0,c
  2545  007E0C  0EFF               	movlw	255
  2546  007E0E  200C               	addwfc	(??___fladd+3)^0,w,c
  2547  007E10  6E04               	movwf	(___fladd@b+3)^0,c
  2548  007E12  0E80               	movlw	128
  2549  007E14  1A0D               	xorwf	___fladd@signs^0,f,c
  2550  007E16  6C10               	negf	___fladd@grs^0,c
  2551  007E18  5010               	movf	___fladd@grs^0,w,c
  2552  007E1A  A4D8               	btfss	status,2,c
  2553  007E1C  EF12  F03F         	goto	u1461
  2554  007E20  EF14  F03F         	goto	u1460
  2555  007E24                     u1461:
  2556  007E24  EF24  F03F         	goto	l663
  2557  007E28                     u1460:
  2558  007E28  0E01               	movlw	1
  2559  007E2A  2601               	addwf	___fladd@b^0,f,c
  2560  007E2C  0E00               	movlw	0
  2561  007E2E  2202               	addwfc	(___fladd@b+1)^0,f,c
  2562  007E30  2203               	addwfc	(___fladd@b+2)^0,f,c
  2563  007E32  2204               	addwfc	(___fladd@b+3)^0,f,c
  2564  007E34  EF24  F03F         	goto	l663
  2565  007E38                     l1637:
  2566  007E38  5005               	movf	___fladd@a^0,w,c
  2567  007E3A  5E01               	subwf	___fladd@b^0,f,c
  2568  007E3C  5006               	movf	(___fladd@a+1)^0,w,c
  2569  007E3E  5A02               	subwfb	(___fladd@b+1)^0,f,c
  2570  007E40  5007               	movf	(___fladd@a+2)^0,w,c
  2571  007E42  5A03               	subwfb	(___fladd@b+2)^0,f,c
  2572  007E44  5008               	movf	(___fladd@a+3)^0,w,c
  2573  007E46  5A04               	subwfb	(___fladd@b+3)^0,f,c
  2574  007E48                     l663:
  2575  007E48  5001               	movf	___fladd@b^0,w,c
  2576  007E4A  1002               	iorwf	(___fladd@b+1)^0,w,c
  2577  007E4C  1003               	iorwf	(___fladd@b+2)^0,w,c
  2578  007E4E  1004               	iorwf	(___fladd@b+3)^0,w,c
  2579  007E50  A4D8               	btfss	status,2,c
  2580  007E52  EF2D  F03F         	goto	u1471
  2581  007E56  EF2F  F03F         	goto	u1470
  2582  007E5A                     u1471:
  2583  007E5A  EF64  F03F         	goto	l1661
  2584  007E5E                     u1470:
  2585  007E5E  5010               	movf	___fladd@grs^0,w,c
  2586  007E60  A4D8               	btfss	status,2,c
  2587  007E62  EF35  F03F         	goto	u1481
  2588  007E66  EF37  F03F         	goto	u1480
  2589  007E6A                     u1481:
  2590  007E6A  EF64  F03F         	goto	l1661
  2591  007E6E                     u1480:
  2592  007E6E  0E00               	movlw	0
  2593  007E70  6E01               	movwf	?___fladd^0,c
  2594  007E72  0E00               	movlw	0
  2595  007E74  6E02               	movwf	(?___fladd+1)^0,c
  2596  007E76  0E00               	movlw	0
  2597  007E78  6E03               	movwf	(?___fladd+2)^0,c
  2598  007E7A  0E00               	movlw	0
  2599  007E7C  6E04               	movwf	(?___fladd+3)^0,c
  2600  007E7E  EFFF  F03F         	goto	l655
  2601  007E82                     l1645:
  2602  007E82  90D8               	bcf	status,0,c
  2603  007E84  3601               	rlcf	___fladd@b^0,f,c
  2604  007E86  3602               	rlcf	(___fladd@b+1)^0,f,c
  2605  007E88  3603               	rlcf	(___fladd@b+2)^0,f,c
  2606  007E8A  3604               	rlcf	(___fladd@b+3)^0,f,c
  2607  007E8C  AE10               	btfss	___fladd@grs^0,7,c
  2608  007E8E  EF4B  F03F         	goto	u1491
  2609  007E92  EF4D  F03F         	goto	u1490
  2610  007E96                     u1491:
  2611  007E96  EF4E  F03F         	goto	l1651
  2612  007E9A                     u1490:
  2613  007E9A  8001               	bsf	___fladd@b^0,0,c
  2614  007E9C                     l1651:
  2615  007E9C  A010               	btfss	___fladd@grs^0,0,c
  2616  007E9E  EF53  F03F         	goto	u1501
  2617  007EA2  EF55  F03F         	goto	u1500
  2618  007EA6                     u1501:
  2619  007EA6  EF59  F03F         	goto	l1655
  2620  007EAA                     u1500:
  2621  007EAA  80D8               	bsf	status,0,c
  2622  007EAC  3610               	rlcf	___fladd@grs^0,f,c
  2623  007EAE  EF5B  F03F         	goto	l1657
  2624  007EB2                     l1655:
  2625  007EB2  90D8               	bcf	status,0,c
  2626  007EB4  3610               	rlcf	___fladd@grs^0,f,c
  2627  007EB6                     l1657:
  2628  007EB6  500F               	movf	___fladd@bexp^0,w,c
  2629  007EB8  B4D8               	btfsc	status,2,c
  2630  007EBA  EF61  F03F         	goto	u1511
  2631  007EBE  EF63  F03F         	goto	u1510
  2632  007EC2                     u1511:
  2633  007EC2  EF64  F03F         	goto	l1661
  2634  007EC6                     u1510:
  2635  007EC6  060F               	decf	___fladd@bexp^0,f,c
  2636  007EC8                     l1661:
  2637  007EC8  AE03               	btfss	(___fladd@b+2)^0,7,c
  2638  007ECA  EF69  F03F         	goto	u1521
  2639  007ECE  EF6B  F03F         	goto	u1520
  2640  007ED2                     u1521:
  2641  007ED2  EF41  F03F         	goto	l1645
  2642  007ED6                     u1520:
  2643  007ED6                     l1663:
  2644  007ED6  0E00               	movlw	0
  2645  007ED8  6E0E               	movwf	___fladd@aexp^0,c
  2646  007EDA  AE10               	btfss	___fladd@grs^0,7,c
  2647  007EDC  EF72  F03F         	goto	u1531
  2648  007EE0  EF74  F03F         	goto	u1530
  2649  007EE4                     u1531:
  2650  007EE4  EF8C  F03F         	goto	l672
  2651  007EE8                     u1530:
  2652  007EE8  C010  F009         	movff	___fladd@grs,??___fladd
  2653  007EEC  0E7F               	movlw	127
  2654  007EEE  1609               	andwf	??___fladd^0,f,c
  2655  007EF0  B4D8               	btfsc	status,2,c
  2656  007EF2  EF7D  F03F         	goto	u1541
  2657  007EF6  EF7F  F03F         	goto	u1540
  2658  007EFA                     u1541:
  2659  007EFA  EF83  F03F         	goto	l673
  2660  007EFE                     u1540:
  2661  007EFE                     l1669:
  2662  007EFE  0E01               	movlw	1
  2663  007F00  6E0E               	movwf	___fladd@aexp^0,c
  2664  007F02  EF8C  F03F         	goto	l672
  2665  007F06                     l673:
  2666  007F06  A001               	btfss	___fladd@b^0,0,c
  2667  007F08  EF88  F03F         	goto	u1551
  2668  007F0C  EF8A  F03F         	goto	u1550
  2669  007F10                     u1551:
  2670  007F10  EF8C  F03F         	goto	l672
  2671  007F14                     u1550:
  2672  007F14  EF7F  F03F         	goto	l1669
  2673  007F18                     l672:
  2674  007F18  500E               	movf	___fladd@aexp^0,w,c
  2675  007F1A  B4D8               	btfsc	status,2,c
  2676  007F1C  EF92  F03F         	goto	u1561
  2677  007F20  EF94  F03F         	goto	u1560
  2678  007F24                     u1561:
  2679  007F24  EFBF  F03F         	goto	l1681
  2680  007F28                     u1560:
  2681  007F28  0E01               	movlw	1
  2682  007F2A  2601               	addwf	___fladd@b^0,f,c
  2683  007F2C  0E00               	movlw	0
  2684  007F2E  2202               	addwfc	(___fladd@b+1)^0,f,c
  2685  007F30  2203               	addwfc	(___fladd@b+2)^0,f,c
  2686  007F32  2204               	addwfc	(___fladd@b+3)^0,f,c
  2687  007F34  A004               	btfss	(___fladd@b+3)^0,0,c
  2688  007F36  EF9F  F03F         	goto	u1571
  2689  007F3A  EFA1  F03F         	goto	u1570
  2690  007F3E                     u1571:
  2691  007F3E  EFBF  F03F         	goto	l1681
  2692  007F42                     u1570:
  2693  007F42  C001  F009         	movff	___fladd@b,??___fladd
  2694  007F46  C002  F00A         	movff	___fladd@b+1,??___fladd+1
  2695  007F4A  C003  F00B         	movff	___fladd@b+2,??___fladd+2
  2696  007F4E  C004  F00C         	movff	___fladd@b+3,??___fladd+3
  2697  007F52  340C               	rlcf	(??___fladd+3)^0,w,c
  2698  007F54  320C               	rrcf	(??___fladd+3)^0,f,c
  2699  007F56  320B               	rrcf	(??___fladd+2)^0,f,c
  2700  007F58  320A               	rrcf	(??___fladd+1)^0,f,c
  2701  007F5A  3209               	rrcf	??___fladd^0,f,c
  2702  007F5C  C009  F001         	movff	??___fladd,___fladd@b
  2703  007F60  C00A  F002         	movff	??___fladd+1,___fladd@b+1
  2704  007F64  C00B  F003         	movff	??___fladd+2,___fladd@b+2
  2705  007F68  C00C  F004         	movff	??___fladd+3,___fladd@b+3
  2706  007F6C  280F               	incf	___fladd@bexp^0,w,c
  2707  007F6E  B4D8               	btfsc	status,2,c
  2708  007F70  EFBC  F03F         	goto	u1581
  2709  007F74  EFBE  F03F         	goto	u1580
  2710  007F78                     u1581:
  2711  007F78  EFBF  F03F         	goto	l1681
  2712  007F7C                     u1580:
  2713  007F7C  2A0F               	incf	___fladd@bexp^0,f,c
  2714  007F7E                     l1681:
  2715  007F7E  280F               	incf	___fladd@bexp^0,w,c
  2716  007F80  B4D8               	btfsc	status,2,c
  2717  007F82  EFC5  F03F         	goto	u1591
  2718  007F86  EFC7  F03F         	goto	u1590
  2719  007F8A                     u1591:
  2720  007F8A  EFCF  F03F         	goto	l1685
  2721  007F8E                     u1590:
  2722  007F8E  500F               	movf	___fladd@bexp^0,w,c
  2723  007F90  A4D8               	btfss	status,2,c
  2724  007F92  EFCD  F03F         	goto	u1601
  2725  007F96  EFCF  F03F         	goto	u1600
  2726  007F9A                     u1601:
  2727  007F9A  EFE1  F03F         	goto	l1689
  2728  007F9E                     u1600:
  2729  007F9E                     l1685:
  2730  007F9E  0E00               	movlw	0
  2731  007FA0  6E01               	movwf	___fladd@b^0,c
  2732  007FA2  0E00               	movlw	0
  2733  007FA4  6E02               	movwf	(___fladd@b+1)^0,c
  2734  007FA6  0E00               	movlw	0
  2735  007FA8  6E03               	movwf	(___fladd@b+2)^0,c
  2736  007FAA  0E00               	movlw	0
  2737  007FAC  6E04               	movwf	(___fladd@b+3)^0,c
  2738  007FAE  500F               	movf	___fladd@bexp^0,w,c
  2739  007FB0  A4D8               	btfss	status,2,c
  2740  007FB2  EFDD  F03F         	goto	u1611
  2741  007FB6  EFDF  F03F         	goto	u1610
  2742  007FBA                     u1611:
  2743  007FBA  EFE1  F03F         	goto	l1689
  2744  007FBE                     u1610:
  2745  007FBE  0E00               	movlw	0
  2746  007FC0  6E0D               	movwf	___fladd@signs^0,c
  2747  007FC2                     l1689:
  2748  007FC2  A00F               	btfss	___fladd@bexp^0,0,c
  2749  007FC4  EFE6  F03F         	goto	u1621
  2750  007FC8  EFE8  F03F         	goto	u1620
  2751  007FCC                     u1621:
  2752  007FCC  EFEB  F03F         	goto	l1693
  2753  007FD0                     u1620:
  2754  007FD0  8E03               	bsf	(___fladd@b+2)^0,7,c
  2755  007FD2  EFEC  F03F         	goto	l1695
  2756  007FD6                     l1693:
  2757  007FD6  9E03               	bcf	(___fladd@b+2)^0,7,c
  2758  007FD8                     l1695:
  2759  007FD8  90D8               	bcf	status,0,c
  2760  007FDA  300F               	rrcf	___fladd@bexp^0,w,c
  2761  007FDC  6E04               	movwf	(___fladd@b+3)^0,c
  2762  007FDE  AE0D               	btfss	___fladd@signs^0,7,c
  2763  007FE0  EFF4  F03F         	goto	u1631
  2764  007FE4  EFF6  F03F         	goto	u1630
  2765  007FE8                     u1631:
  2766  007FE8  EFF7  F03F         	goto	l1701
  2767  007FEC                     u1630:
  2768  007FEC  8E04               	bsf	(___fladd@b+3)^0,7,c
  2769  007FEE                     l1701:
  2770  007FEE  C001  F001         	movff	___fladd@b,?___fladd
  2771  007FF2  C002  F002         	movff	___fladd@b+1,?___fladd+1
  2772  007FF6  C003  F003         	movff	___fladd@b+2,?___fladd+2
  2773  007FFA  C004  F004         	movff	___fladd@b+3,?___fladd+3
  2774  007FFE                     l655:
  2775  007FFE  0012               	return		;funcret
  2776  008000                     __end_of___fladd:
  2777                           	callstack 0
  2778                           
  2779 ;; *************** function ___fldiv *****************
  2780 ;; Defined at:
  2781 ;;		line 11 in file "C:\Program Files\Microchip\xc8\v2.32\pic\sources\c99\common\sprcdiv.c"
  2782 ;; Parameters:    Size  Location     Type
  2783 ;;  b               4   14[COMRAM] unsigned char 
  2784 ;;  a               4   18[COMRAM] unsigned char 
  2785 ;; Auto vars:     Size  Location     Type
  2786 ;;  grs             4   33[COMRAM] unsigned long 
  2787 ;;  rem             4   26[COMRAM] unsigned long 
  2788 ;;  new_exp         2   31[COMRAM] short 
  2789 ;;  aexp            1   38[COMRAM] unsigned char 
  2790 ;;  bexp            1   37[COMRAM] unsigned char 
  2791 ;;  sign            1   30[COMRAM] unsigned char 
  2792 ;; Return value:  Size  Location     Type
  2793 ;;                  4   14[COMRAM] unsigned char 
  2794 ;; Registers used:
  2795 ;;		wreg, status,2, status,0
  2796 ;; Tracked objects:
  2797 ;;		On entry : 0/0
  2798 ;;		On exit  : 0/0
  2799 ;;		Unchanged: 0/0
  2800 ;; Data sizes:     COMRAM   BANK0   BANK1   BANK2   BANK3   BANK4   BANK5   BANK6   BANK7
  2801 ;;      Params:         8       0       0       0       0       0       0       0       0
  2802 ;;      Locals:        13       0       0       0       0       0       0       0       0
  2803 ;;      Temps:          4       0       0       0       0       0       0       0       0
  2804 ;;      Totals:        25       0       0       0       0       0       0       0       0
  2805 ;;Total ram usage:       25 bytes
  2806 ;; Hardware stack levels used: 1
  2807 ;; This function calls:
  2808 ;;		Nothing
  2809 ;; This function is called by:
  2810 ;;		_tocar_nota
  2811 ;;		_silencio
  2812 ;; This function uses a non-reentrant model
  2813 ;;
  2814                           
  2815                           	psect	text9
  2816  00737C                     __ptext9:
  2817                           	callstack 0
  2818  00737C                     ___fldiv:
  2819                           	callstack 28
  2820  00737C  5012               	movf	(___fldiv@b+3)^0,w,c
  2821  00737E  0B80               	andlw	128
  2822  007380  6E1F               	movwf	___fldiv@sign^0,c
  2823  007382  5012               	movf	(___fldiv@b+3)^0,w,c
  2824  007384  2412               	addwf	(___fldiv@b+3)^0,w,c
  2825  007386  6E26               	movwf	___fldiv@bexp^0,c
  2826  007388  AE11               	btfss	(___fldiv@b+2)^0,7,c
  2827  00738A  EFC9  F039         	goto	u1641
  2828  00738E  EFCB  F039         	goto	u1640
  2829  007392                     u1641:
  2830  007392  EFCC  F039         	goto	l1711
  2831  007396                     u1640:
  2832  007396  8026               	bsf	___fldiv@bexp^0,0,c
  2833  007398                     l1711:
  2834  007398  5026               	movf	___fldiv@bexp^0,w,c
  2835  00739A  B4D8               	btfsc	status,2,c
  2836  00739C  EFD2  F039         	goto	u1651
  2837  0073A0  EFD4  F039         	goto	u1650
  2838  0073A4                     u1651:
  2839  0073A4  EFE9  F039         	goto	l1721
  2840  0073A8                     u1650:
  2841  0073A8  2826               	incf	___fldiv@bexp^0,w,c
  2842  0073AA  A4D8               	btfss	status,2,c
  2843  0073AC  EFDA  F039         	goto	u1661
  2844  0073B0  EFDC  F039         	goto	u1660
  2845  0073B4                     u1661:
  2846  0073B4  EFE4  F039         	goto	l1717
  2847  0073B8                     u1660:
  2848  0073B8  0E00               	movlw	0
  2849  0073BA  6E0F               	movwf	___fldiv@b^0,c
  2850  0073BC  0E00               	movlw	0
  2851  0073BE  6E10               	movwf	(___fldiv@b+1)^0,c
  2852  0073C0  0E00               	movlw	0
  2853  0073C2  6E11               	movwf	(___fldiv@b+2)^0,c
  2854  0073C4  0E00               	movlw	0
  2855  0073C6  6E12               	movwf	(___fldiv@b+3)^0,c
  2856  0073C8                     l1717:
  2857  0073C8  8E11               	bsf	(___fldiv@b+2)^0,7,c
  2858  0073CA  0E00               	movlw	0
  2859  0073CC  6E12               	movwf	(___fldiv@b+3)^0,c
  2860  0073CE  EFF1  F039         	goto	l1723
  2861  0073D2                     l1721:
  2862  0073D2  0E00               	movlw	0
  2863  0073D4  6E0F               	movwf	___fldiv@b^0,c
  2864  0073D6  0E00               	movlw	0
  2865  0073D8  6E10               	movwf	(___fldiv@b+1)^0,c
  2866  0073DA  0E00               	movlw	0
  2867  0073DC  6E11               	movwf	(___fldiv@b+2)^0,c
  2868  0073DE  0E00               	movlw	0
  2869  0073E0  6E12               	movwf	(___fldiv@b+3)^0,c
  2870  0073E2                     l1723:
  2871  0073E2  5016               	movf	(___fldiv@a+3)^0,w,c
  2872  0073E4  0B80               	andlw	128
  2873  0073E6  1A1F               	xorwf	___fldiv@sign^0,f,c
  2874  0073E8  5016               	movf	(___fldiv@a+3)^0,w,c
  2875  0073EA  2416               	addwf	(___fldiv@a+3)^0,w,c
  2876  0073EC  6E27               	movwf	___fldiv@aexp^0,c
  2877  0073EE  AE15               	btfss	(___fldiv@a+2)^0,7,c
  2878  0073F0  EFFC  F039         	goto	u1671
  2879  0073F4  EFFE  F039         	goto	u1670
  2880  0073F8                     u1671:
  2881  0073F8  EFFF  F039         	goto	l1731
  2882  0073FC                     u1670:
  2883  0073FC  8027               	bsf	___fldiv@aexp^0,0,c
  2884  0073FE                     l1731:
  2885  0073FE  5027               	movf	___fldiv@aexp^0,w,c
  2886  007400  B4D8               	btfsc	status,2,c
  2887  007402  EF05  F03A         	goto	u1681
  2888  007406  EF07  F03A         	goto	u1680
  2889  00740A                     u1681:
  2890  00740A  EF1C  F03A         	goto	l1741
  2891  00740E                     u1680:
  2892  00740E  2827               	incf	___fldiv@aexp^0,w,c
  2893  007410  A4D8               	btfss	status,2,c
  2894  007412  EF0D  F03A         	goto	u1691
  2895  007416  EF0F  F03A         	goto	u1690
  2896  00741A                     u1691:
  2897  00741A  EF17  F03A         	goto	l1737
  2898  00741E                     u1690:
  2899  00741E  0E00               	movlw	0
  2900  007420  6E13               	movwf	___fldiv@a^0,c
  2901  007422  0E00               	movlw	0
  2902  007424  6E14               	movwf	(___fldiv@a+1)^0,c
  2903  007426  0E00               	movlw	0
  2904  007428  6E15               	movwf	(___fldiv@a+2)^0,c
  2905  00742A  0E00               	movlw	0
  2906  00742C  6E16               	movwf	(___fldiv@a+3)^0,c
  2907  00742E                     l1737:
  2908  00742E  8E15               	bsf	(___fldiv@a+2)^0,7,c
  2909  007430  0E00               	movlw	0
  2910  007432  6E16               	movwf	(___fldiv@a+3)^0,c
  2911  007434  EF24  F03A         	goto	l1743
  2912  007438                     l1741:
  2913  007438  0E00               	movlw	0
  2914  00743A  6E13               	movwf	___fldiv@a^0,c
  2915  00743C  0E00               	movlw	0
  2916  00743E  6E14               	movwf	(___fldiv@a+1)^0,c
  2917  007440  0E00               	movlw	0
  2918  007442  6E15               	movwf	(___fldiv@a+2)^0,c
  2919  007444  0E00               	movlw	0
  2920  007446  6E16               	movwf	(___fldiv@a+3)^0,c
  2921  007448                     l1743:
  2922  007448  5013               	movf	___fldiv@a^0,w,c
  2923  00744A  1014               	iorwf	(___fldiv@a+1)^0,w,c
  2924  00744C  1015               	iorwf	(___fldiv@a+2)^0,w,c
  2925  00744E  1016               	iorwf	(___fldiv@a+3)^0,w,c
  2926  007450  A4D8               	btfss	status,2,c
  2927  007452  EF2D  F03A         	goto	u1701
  2928  007456  EF2F  F03A         	goto	u1700
  2929  00745A                     u1701:
  2930  00745A  EF47  F03A         	goto	l1755
  2931  00745E                     u1700:
  2932  00745E  0E00               	movlw	0
  2933  007460  6E0F               	movwf	___fldiv@b^0,c
  2934  007462  0E00               	movlw	0
  2935  007464  6E10               	movwf	(___fldiv@b+1)^0,c
  2936  007466  0E00               	movlw	0
  2937  007468  6E11               	movwf	(___fldiv@b+2)^0,c
  2938  00746A  0E00               	movlw	0
  2939  00746C  6E12               	movwf	(___fldiv@b+3)^0,c
  2940  00746E  0E80               	movlw	128
  2941  007470  1211               	iorwf	(___fldiv@b+2)^0,f,c
  2942  007472  0E7F               	movlw	127
  2943  007474  1212               	iorwf	(___fldiv@b+3)^0,f,c
  2944  007476                     l1749:
  2945  007476  501F               	movf	___fldiv@sign^0,w,c
  2946  007478  1212               	iorwf	(___fldiv@b+3)^0,f,c
  2947  00747A  C00F  F00F         	movff	___fldiv@b,?___fldiv
  2948  00747E  C010  F010         	movff	___fldiv@b+1,?___fldiv+1
  2949  007482  C011  F011         	movff	___fldiv@b+2,?___fldiv+2
  2950  007486  C012  F012         	movff	___fldiv@b+3,?___fldiv+3
  2951  00748A  EF8A  F03B         	goto	l700
  2952  00748E                     l1755:
  2953  00748E  5026               	movf	___fldiv@bexp^0,w,c
  2954  007490  A4D8               	btfss	status,2,c
  2955  007492  EF4D  F03A         	goto	u1711
  2956  007496  EF4F  F03A         	goto	u1710
  2957  00749A                     u1711:
  2958  00749A  EF59  F03A         	goto	l1763
  2959  00749E                     u1710:
  2960  00749E  0E00               	movlw	0
  2961  0074A0  6E0F               	movwf	?___fldiv^0,c
  2962  0074A2  0E00               	movlw	0
  2963  0074A4  6E10               	movwf	(?___fldiv+1)^0,c
  2964  0074A6  0E00               	movlw	0
  2965  0074A8  6E11               	movwf	(?___fldiv+2)^0,c
  2966  0074AA  0E00               	movlw	0
  2967  0074AC  6E12               	movwf	(?___fldiv+3)^0,c
  2968  0074AE  EF8A  F03B         	goto	l700
  2969  0074B2                     l1763:
  2970  0074B2  5027               	movf	___fldiv@aexp^0,w,c
  2971  0074B4  C026  F017         	movff	___fldiv@bexp,??___fldiv
  2972  0074B8  6A18               	clrf	(??___fldiv+1)^0,c
  2973  0074BA  5E17               	subwf	??___fldiv^0,f,c
  2974  0074BC  0E00               	movlw	0
  2975  0074BE  5A18               	subwfb	(??___fldiv+1)^0,f,c
  2976  0074C0  0E7F               	movlw	127
  2977  0074C2  2417               	addwf	??___fldiv^0,w,c
  2978  0074C4  6E20               	movwf	___fldiv@new_exp^0,c
  2979  0074C6  0E00               	movlw	0
  2980  0074C8  2018               	addwfc	(??___fldiv+1)^0,w,c
  2981  0074CA  6E21               	movwf	(___fldiv@new_exp+1)^0,c
  2982  0074CC  C00F  F01B         	movff	___fldiv@b,___fldiv@rem
  2983  0074D0  C010  F01C         	movff	___fldiv@b+1,___fldiv@rem+1
  2984  0074D4  C011  F01D         	movff	___fldiv@b+2,___fldiv@rem+2
  2985  0074D8  C012  F01E         	movff	___fldiv@b+3,___fldiv@rem+3
  2986  0074DC  0E00               	movlw	0
  2987  0074DE  6E0F               	movwf	___fldiv@b^0,c
  2988  0074E0  0E00               	movlw	0
  2989  0074E2  6E10               	movwf	(___fldiv@b+1)^0,c
  2990  0074E4  0E00               	movlw	0
  2991  0074E6  6E11               	movwf	(___fldiv@b+2)^0,c
  2992  0074E8  0E00               	movlw	0
  2993  0074EA  6E12               	movwf	(___fldiv@b+3)^0,c
  2994  0074EC  0E00               	movlw	0
  2995  0074EE  6E22               	movwf	___fldiv@grs^0,c
  2996  0074F0  0E00               	movlw	0
  2997  0074F2  6E23               	movwf	(___fldiv@grs+1)^0,c
  2998  0074F4  0E00               	movlw	0
  2999  0074F6  6E24               	movwf	(___fldiv@grs+2)^0,c
  3000  0074F8  0E00               	movlw	0
  3001  0074FA  6E25               	movwf	(___fldiv@grs+3)^0,c
  3002  0074FC  0E00               	movlw	0
  3003  0074FE  6E27               	movwf	___fldiv@aexp^0,c
  3004  007500  EFBA  F03A         	goto	l702
  3005  007504                     l1773:
  3006  007504  5027               	movf	___fldiv@aexp^0,w,c
  3007  007506  B4D8               	btfsc	status,2,c
  3008  007508  EF88  F03A         	goto	u1721
  3009  00750C  EF8A  F03A         	goto	u1720
  3010  007510                     u1721:
  3011  007510  EFA1  F03A         	goto	l1781
  3012  007514                     u1720:
  3013  007514  90D8               	bcf	status,0,c
  3014  007516  361B               	rlcf	___fldiv@rem^0,f,c
  3015  007518  361C               	rlcf	(___fldiv@rem+1)^0,f,c
  3016  00751A  361D               	rlcf	(___fldiv@rem+2)^0,f,c
  3017  00751C  361E               	rlcf	(___fldiv@rem+3)^0,f,c
  3018  00751E  90D8               	bcf	status,0,c
  3019  007520  360F               	rlcf	___fldiv@b^0,f,c
  3020  007522  3610               	rlcf	(___fldiv@b+1)^0,f,c
  3021  007524  3611               	rlcf	(___fldiv@b+2)^0,f,c
  3022  007526  3612               	rlcf	(___fldiv@b+3)^0,f,c
  3023  007528  AE25               	btfss	(___fldiv@grs+3)^0,7,c
  3024  00752A  EF99  F03A         	goto	u1731
  3025  00752E  EF9B  F03A         	goto	u1730
  3026  007532                     u1731:
  3027  007532  EF9C  F03A         	goto	l705
  3028  007536                     u1730:
  3029  007536  800F               	bsf	___fldiv@b^0,0,c
  3030  007538                     l705:
  3031  007538  90D8               	bcf	status,0,c
  3032  00753A  3622               	rlcf	___fldiv@grs^0,f,c
  3033  00753C  3623               	rlcf	(___fldiv@grs+1)^0,f,c
  3034  00753E  3624               	rlcf	(___fldiv@grs+2)^0,f,c
  3035  007540  3625               	rlcf	(___fldiv@grs+3)^0,f,c
  3036  007542                     l1781:
  3037  007542  5013               	movf	___fldiv@a^0,w,c
  3038  007544  5C1B               	subwf	___fldiv@rem^0,w,c
  3039  007546  5014               	movf	(___fldiv@a+1)^0,w,c
  3040  007548  581C               	subwfb	(___fldiv@rem+1)^0,w,c
  3041  00754A  5015               	movf	(___fldiv@a+2)^0,w,c
  3042  00754C  581D               	subwfb	(___fldiv@rem+2)^0,w,c
  3043  00754E  5016               	movf	(___fldiv@a+3)^0,w,c
  3044  007550  581E               	subwfb	(___fldiv@rem+3)^0,w,c
  3045  007552  A0D8               	btfss	status,0,c
  3046  007554  EFAE  F03A         	goto	u1741
  3047  007558  EFB0  F03A         	goto	u1740
  3048  00755C                     u1741:
  3049  00755C  EFB9  F03A         	goto	l1787
  3050  007560                     u1740:
  3051  007560  8C25               	bsf	(___fldiv@grs+3)^0,6,c
  3052  007562  5013               	movf	___fldiv@a^0,w,c
  3053  007564  5E1B               	subwf	___fldiv@rem^0,f,c
  3054  007566  5014               	movf	(___fldiv@a+1)^0,w,c
  3055  007568  5A1C               	subwfb	(___fldiv@rem+1)^0,f,c
  3056  00756A  5015               	movf	(___fldiv@a+2)^0,w,c
  3057  00756C  5A1D               	subwfb	(___fldiv@rem+2)^0,f,c
  3058  00756E  5016               	movf	(___fldiv@a+3)^0,w,c
  3059  007570  5A1E               	subwfb	(___fldiv@rem+3)^0,f,c
  3060  007572                     l1787:
  3061  007572  2A27               	incf	___fldiv@aexp^0,f,c
  3062  007574                     l702:
  3063  007574  0E19               	movlw	25
  3064  007576  6427               	cpfsgt	___fldiv@aexp^0,c
  3065  007578  EFC0  F03A         	goto	u1751
  3066  00757C  EFC2  F03A         	goto	u1750
  3067  007580                     u1751:
  3068  007580  EF82  F03A         	goto	l1773
  3069  007584                     u1750:
  3070  007584  501B               	movf	___fldiv@rem^0,w,c
  3071  007586  101C               	iorwf	(___fldiv@rem+1)^0,w,c
  3072  007588  101D               	iorwf	(___fldiv@rem+2)^0,w,c
  3073  00758A  101E               	iorwf	(___fldiv@rem+3)^0,w,c
  3074  00758C  B4D8               	btfsc	status,2,c
  3075  00758E  EFCB  F03A         	goto	u1761
  3076  007592  EFCD  F03A         	goto	u1760
  3077  007596                     u1761:
  3078  007596  EFE5  F03A         	goto	l1799
  3079  00759A                     u1760:
  3080  00759A  8022               	bsf	___fldiv@grs^0,0,c
  3081  00759C  EFE5  F03A         	goto	l1799
  3082  0075A0                     l1793:
  3083  0075A0  90D8               	bcf	status,0,c
  3084  0075A2  360F               	rlcf	___fldiv@b^0,f,c
  3085  0075A4  3610               	rlcf	(___fldiv@b+1)^0,f,c
  3086  0075A6  3611               	rlcf	(___fldiv@b+2)^0,f,c
  3087  0075A8  3612               	rlcf	(___fldiv@b+3)^0,f,c
  3088  0075AA  AE25               	btfss	(___fldiv@grs+3)^0,7,c
  3089  0075AC  EFDA  F03A         	goto	u1771
  3090  0075B0  EFDC  F03A         	goto	u1770
  3091  0075B4                     u1771:
  3092  0075B4  EFDD  F03A         	goto	l711
  3093  0075B8                     u1770:
  3094  0075B8  800F               	bsf	___fldiv@b^0,0,c
  3095  0075BA                     l711:
  3096  0075BA  90D8               	bcf	status,0,c
  3097  0075BC  3622               	rlcf	___fldiv@grs^0,f,c
  3098  0075BE  3623               	rlcf	(___fldiv@grs+1)^0,f,c
  3099  0075C0  3624               	rlcf	(___fldiv@grs+2)^0,f,c
  3100  0075C2  3625               	rlcf	(___fldiv@grs+3)^0,f,c
  3101  0075C4  0620               	decf	___fldiv@new_exp^0,f,c
  3102  0075C6  A0D8               	btfss	status,0,c
  3103  0075C8  0621               	decf	(___fldiv@new_exp+1)^0,f,c
  3104  0075CA                     l1799:
  3105  0075CA  AE11               	btfss	(___fldiv@b+2)^0,7,c
  3106  0075CC  EFEA  F03A         	goto	u1781
  3107  0075D0  EFEC  F03A         	goto	u1780
  3108  0075D4                     u1781:
  3109  0075D4  EFD0  F03A         	goto	l1793
  3110  0075D8                     u1780:
  3111  0075D8  0E00               	movlw	0
  3112  0075DA  6E27               	movwf	___fldiv@aexp^0,c
  3113  0075DC  AE25               	btfss	(___fldiv@grs+3)^0,7,c
  3114  0075DE  EFF3  F03A         	goto	u1791
  3115  0075E2  EFF5  F03A         	goto	u1790
  3116  0075E6                     u1791:
  3117  0075E6  EF19  F03B         	goto	l713
  3118  0075EA                     u1790:
  3119  0075EA  0EFF               	movlw	255
  3120  0075EC  1422               	andwf	___fldiv@grs^0,w,c
  3121  0075EE  6E17               	movwf	??___fldiv^0,c
  3122  0075F0  0EFF               	movlw	255
  3123  0075F2  1423               	andwf	(___fldiv@grs+1)^0,w,c
  3124  0075F4  6E18               	movwf	(??___fldiv+1)^0,c
  3125  0075F6  0EFF               	movlw	255
  3126  0075F8  1424               	andwf	(___fldiv@grs+2)^0,w,c
  3127  0075FA  6E19               	movwf	(??___fldiv+2)^0,c
  3128  0075FC  0E7F               	movlw	127
  3129  0075FE  1425               	andwf	(___fldiv@grs+3)^0,w,c
  3130  007600  6E1A               	movwf	(??___fldiv+3)^0,c
  3131  007602  5017               	movf	??___fldiv^0,w,c
  3132  007604  1018               	iorwf	(??___fldiv+1)^0,w,c
  3133  007606  1019               	iorwf	(??___fldiv+2)^0,w,c
  3134  007608  101A               	iorwf	(??___fldiv+3)^0,w,c
  3135  00760A  B4D8               	btfsc	status,2,c
  3136  00760C  EF0A  F03B         	goto	u1801
  3137  007610  EF0C  F03B         	goto	u1800
  3138  007614                     u1801:
  3139  007614  EF10  F03B         	goto	l714
  3140  007618                     u1800:
  3141  007618                     l1807:
  3142  007618  0E01               	movlw	1
  3143  00761A  6E27               	movwf	___fldiv@aexp^0,c
  3144  00761C  EF19  F03B         	goto	l713
  3145  007620                     l714:
  3146  007620  A00F               	btfss	___fldiv@b^0,0,c
  3147  007622  EF15  F03B         	goto	u1811
  3148  007626  EF17  F03B         	goto	u1810
  3149  00762A                     u1811:
  3150  00762A  EF19  F03B         	goto	l713
  3151  00762E                     u1810:
  3152  00762E  EF0C  F03B         	goto	l1807
  3153  007632                     l713:
  3154  007632  5027               	movf	___fldiv@aexp^0,w,c
  3155  007634  B4D8               	btfsc	status,2,c
  3156  007636  EF1F  F03B         	goto	u1821
  3157  00763A  EF21  F03B         	goto	u1820
  3158  00763E                     u1821:
  3159  00763E  EF45  F03B         	goto	l1819
  3160  007642                     u1820:
  3161  007642  0E01               	movlw	1
  3162  007644  260F               	addwf	___fldiv@b^0,f,c
  3163  007646  0E00               	movlw	0
  3164  007648  2210               	addwfc	(___fldiv@b+1)^0,f,c
  3165  00764A  2211               	addwfc	(___fldiv@b+2)^0,f,c
  3166  00764C  2212               	addwfc	(___fldiv@b+3)^0,f,c
  3167  00764E  A012               	btfss	(___fldiv@b+3)^0,0,c
  3168  007650  EF2C  F03B         	goto	u1831
  3169  007654  EF2E  F03B         	goto	u1830
  3170  007658                     u1831:
  3171  007658  EF45  F03B         	goto	l1819
  3172  00765C                     u1830:
  3173  00765C  C00F  F017         	movff	___fldiv@b,??___fldiv
  3174  007660  C010  F018         	movff	___fldiv@b+1,??___fldiv+1
  3175  007664  C011  F019         	movff	___fldiv@b+2,??___fldiv+2
  3176  007668  C012  F01A         	movff	___fldiv@b+3,??___fldiv+3
  3177  00766C  341A               	rlcf	(??___fldiv+3)^0,w,c
  3178  00766E  321A               	rrcf	(??___fldiv+3)^0,f,c
  3179  007670  3219               	rrcf	(??___fldiv+2)^0,f,c
  3180  007672  3218               	rrcf	(??___fldiv+1)^0,f,c
  3181  007674  3217               	rrcf	??___fldiv^0,f,c
  3182  007676  C017  F00F         	movff	??___fldiv,___fldiv@b
  3183  00767A  C018  F010         	movff	??___fldiv+1,___fldiv@b+1
  3184  00767E  C019  F011         	movff	??___fldiv+2,___fldiv@b+2
  3185  007682  C01A  F012         	movff	??___fldiv+3,___fldiv@b+3
  3186  007686  4A20               	infsnz	___fldiv@new_exp^0,f,c
  3187  007688  2A21               	incf	(___fldiv@new_exp+1)^0,f,c
  3188  00768A                     l1819:
  3189  00768A  BE21               	btfsc	(___fldiv@new_exp+1)^0,7,c
  3190  00768C  EF50  F03B         	goto	u1841
  3191  007690  5021               	movf	(___fldiv@new_exp+1)^0,w,c
  3192  007692  E108               	bnz	u1840
  3193  007694  2820               	incf	___fldiv@new_exp^0,w,c
  3194  007696  A0D8               	btfss	status,0,c
  3195  007698  EF50  F03B         	goto	u1841
  3196  00769C  EF52  F03B         	goto	u1840
  3197  0076A0                     u1841:
  3198  0076A0  EF5D  F03B         	goto	l1823
  3199  0076A4                     u1840:
  3200  0076A4  0E00               	movlw	0
  3201  0076A6  6E21               	movwf	(___fldiv@new_exp+1)^0,c
  3202  0076A8  6820               	setf	___fldiv@new_exp^0,c
  3203  0076AA  0E00               	movlw	0
  3204  0076AC  6E0F               	movwf	___fldiv@b^0,c
  3205  0076AE  0E00               	movlw	0
  3206  0076B0  6E10               	movwf	(___fldiv@b+1)^0,c
  3207  0076B2  0E00               	movlw	0
  3208  0076B4  6E11               	movwf	(___fldiv@b+2)^0,c
  3209  0076B6  0E00               	movlw	0
  3210  0076B8  6E12               	movwf	(___fldiv@b+3)^0,c
  3211  0076BA                     l1823:
  3212  0076BA  BE21               	btfsc	(___fldiv@new_exp+1)^0,7,c
  3213  0076BC  EF6A  F03B         	goto	u1850
  3214  0076C0  5021               	movf	(___fldiv@new_exp+1)^0,w,c
  3215  0076C2  E106               	bnz	u1851
  3216  0076C4  0420               	decf	___fldiv@new_exp^0,w,c
  3217  0076C6  B0D8               	btfsc	status,0,c
  3218  0076C8  EF68  F03B         	goto	u1851
  3219  0076CC  EF6A  F03B         	goto	u1850
  3220  0076D0                     u1851:
  3221  0076D0  EF78  F03B         	goto	l1827
  3222  0076D4                     u1850:
  3223  0076D4  0E00               	movlw	0
  3224  0076D6  6E21               	movwf	(___fldiv@new_exp+1)^0,c
  3225  0076D8  0E00               	movlw	0
  3226  0076DA  6E20               	movwf	___fldiv@new_exp^0,c
  3227  0076DC  0E00               	movlw	0
  3228  0076DE  6E0F               	movwf	___fldiv@b^0,c
  3229  0076E0  0E00               	movlw	0
  3230  0076E2  6E10               	movwf	(___fldiv@b+1)^0,c
  3231  0076E4  0E00               	movlw	0
  3232  0076E6  6E11               	movwf	(___fldiv@b+2)^0,c
  3233  0076E8  0E00               	movlw	0
  3234  0076EA  6E12               	movwf	(___fldiv@b+3)^0,c
  3235  0076EC  0E00               	movlw	0
  3236  0076EE  6E1F               	movwf	___fldiv@sign^0,c
  3237  0076F0                     l1827:
  3238  0076F0  C020  F026         	movff	___fldiv@new_exp,___fldiv@bexp
  3239  0076F4  A026               	btfss	___fldiv@bexp^0,0,c
  3240  0076F6  EF7F  F03B         	goto	u1861
  3241  0076FA  EF81  F03B         	goto	u1860
  3242  0076FE                     u1861:
  3243  0076FE  EF84  F03B         	goto	l1833
  3244  007702                     u1860:
  3245  007702  8E11               	bsf	(___fldiv@b+2)^0,7,c
  3246  007704  EF85  F03B         	goto	l1835
  3247  007708                     l1833:
  3248  007708  9E11               	bcf	(___fldiv@b+2)^0,7,c
  3249  00770A                     l1835:
  3250  00770A  90D8               	bcf	status,0,c
  3251  00770C  3026               	rrcf	___fldiv@bexp^0,w,c
  3252  00770E  6E12               	movwf	(___fldiv@b+3)^0,c
  3253  007710  EF3B  F03A         	goto	l1749
  3254  007714                     l700:
  3255  007714  0012               	return		;funcret
  3256  007716                     __end_of___fldiv:
  3257                           	callstack 0
  3258                           
  3259 ;; *************** function ___wmul *****************
  3260 ;; Defined at:
  3261 ;;		line 15 in file "C:\Program Files\Microchip\xc8\v2.32\pic\sources\c99\common\Umul16.c"
  3262 ;; Parameters:    Size  Location     Type
  3263 ;;  multiplier      2    0[COMRAM] unsigned int 
  3264 ;;  multiplicand    2    2[COMRAM] unsigned int 
  3265 ;; Auto vars:     Size  Location     Type
  3266 ;;  product         2    4[COMRAM] unsigned int 
  3267 ;; Return value:  Size  Location     Type
  3268 ;;                  2    0[COMRAM] unsigned int 
  3269 ;; Registers used:
  3270 ;;		wreg, status,2, status,0, prodl, prodh
  3271 ;; Tracked objects:
  3272 ;;		On entry : 0/0
  3273 ;;		On exit  : 0/0
  3274 ;;		Unchanged: 0/0
  3275 ;; Data sizes:     COMRAM   BANK0   BANK1   BANK2   BANK3   BANK4   BANK5   BANK6   BANK7
  3276 ;;      Params:         4       0       0       0       0       0       0       0       0
  3277 ;;      Locals:         2       0       0       0       0       0       0       0       0
  3278 ;;      Temps:          0       0       0       0       0       0       0       0       0
  3279 ;;      Totals:         6       0       0       0       0       0       0       0       0
  3280 ;;Total ram usage:        6 bytes
  3281 ;; Hardware stack levels used: 1
  3282 ;; This function calls:
  3283 ;;		Nothing
  3284 ;; This function is called by:
  3285 ;;		_cancion1
  3286 ;; This function uses a non-reentrant model
  3287 ;;
  3288                           
  3289                           	psect	text10
  3290  00666E                     __ptext10:
  3291                           	callstack 0
  3292  00666E                     ___wmul:
  3293                           	callstack 29
  3294  00666E  5001               	movf	___wmul@multiplier^0,w,c
  3295  006670  0203               	mulwf	___wmul@multiplicand^0,c
  3296  006672  CFF3 F005          	movff	prodl,___wmul@product
  3297  006676  CFF4 F006          	movff	prodh,___wmul@product+1
  3298  00667A  5001               	movf	___wmul@multiplier^0,w,c
  3299  00667C  0204               	mulwf	(___wmul@multiplicand+1)^0,c
  3300  00667E  50F3               	movf	243,w,c
  3301  006680  2606               	addwf	(___wmul@product+1)^0,f,c
  3302  006682  5002               	movf	(___wmul@multiplier+1)^0,w,c
  3303  006684  0203               	mulwf	___wmul@multiplicand^0,c
  3304  006686  50F3               	movf	243,w,c
  3305  006688  2606               	addwf	(___wmul@product+1)^0,f,c
  3306  00668A  C005  F001         	movff	___wmul@product,?___wmul
  3307  00668E  C006  F002         	movff	___wmul@product+1,?___wmul+1
  3308  006692  0012               	return		;funcret
  3309  006694                     __end_of___wmul:
  3310                           	callstack 0
  3311                           
  3312 ;; *************** function ___flmul *****************
  3313 ;; Defined at:
  3314 ;;		line 8 in file "C:\Program Files\Microchip\xc8\v2.32\pic\sources\c99\common\sprcmul.c"
  3315 ;; Parameters:    Size  Location     Type
  3316 ;;  b               4   14[COMRAM] unsigned int 
  3317 ;;  a               4   18[COMRAM] unsigned int 
  3318 ;; Auto vars:     Size  Location     Type
  3319 ;;  prod            4   33[COMRAM] struct .
  3320 ;;  grs             4   27[COMRAM] unsigned long 
  3321 ;;  temp            2   37[COMRAM] struct .
  3322 ;;  bexp            1   32[COMRAM] unsigned char 
  3323 ;;  aexp            1   31[COMRAM] unsigned char 
  3324 ;;  sign            1   26[COMRAM] unsigned char 
  3325 ;; Return value:  Size  Location     Type
  3326 ;;                  4   14[COMRAM] unsigned char 
  3327 ;; Registers used:
  3328 ;;		wreg, status,2, status,0, prodl, prodh
  3329 ;; Tracked objects:
  3330 ;;		On entry : 0/0
  3331 ;;		On exit  : 0/0
  3332 ;;		Unchanged: 0/0
  3333 ;; Data sizes:     COMRAM   BANK0   BANK1   BANK2   BANK3   BANK4   BANK5   BANK6   BANK7
  3334 ;;      Params:         8       0       0       0       0       0       0       0       0
  3335 ;;      Locals:        13       0       0       0       0       0       0       0       0
  3336 ;;      Temps:          4       0       0       0       0       0       0       0       0
  3337 ;;      Totals:        25       0       0       0       0       0       0       0       0
  3338 ;;Total ram usage:       25 bytes
  3339 ;; Hardware stack levels used: 1
  3340 ;; This function calls:
  3341 ;;		Nothing
  3342 ;; This function is called by:
  3343 ;;		_cancion1
  3344 ;; This function uses a non-reentrant model
  3345 ;;
  3346                           
  3347                           	psect	text11
  3348  007716                     __ptext11:
  3349                           	callstack 0
  3350  007716                     ___flmul:
  3351                           	callstack 29
  3352  007716  5012               	movf	(___flmul@b+3)^0,w,c
  3353  007718  0B80               	andlw	128
  3354  00771A  6E1B               	movwf	___flmul@sign^0,c
  3355  00771C  5012               	movf	(___flmul@b+3)^0,w,c
  3356  00771E  2412               	addwf	(___flmul@b+3)^0,w,c
  3357  007720  6E21               	movwf	___flmul@bexp^0,c
  3358  007722  AE11               	btfss	(___flmul@b+2)^0,7,c
  3359  007724  EF96  F03B         	goto	u2101
  3360  007728  EF98  F03B         	goto	u2100
  3361  00772C                     u2101:
  3362  00772C  EF99  F03B         	goto	l1975
  3363  007730                     u2100:
  3364  007730  8021               	bsf	___flmul@bexp^0,0,c
  3365  007732                     l1975:
  3366  007732  5021               	movf	___flmul@bexp^0,w,c
  3367  007734  B4D8               	btfsc	status,2,c
  3368  007736  EF9F  F03B         	goto	u2111
  3369  00773A  EFA1  F03B         	goto	u2110
  3370  00773E                     u2111:
  3371  00773E  EFB4  F03B         	goto	l1983
  3372  007742                     u2110:
  3373  007742  2821               	incf	___flmul@bexp^0,w,c
  3374  007744  A4D8               	btfss	status,2,c
  3375  007746  EFA7  F03B         	goto	u2121
  3376  00774A  EFA9  F03B         	goto	u2120
  3377  00774E                     u2121:
  3378  00774E  EFB1  F03B         	goto	l1981
  3379  007752                     u2120:
  3380  007752  0E00               	movlw	0
  3381  007754  6E0F               	movwf	___flmul@b^0,c
  3382  007756  0E00               	movlw	0
  3383  007758  6E10               	movwf	(___flmul@b+1)^0,c
  3384  00775A  0E00               	movlw	0
  3385  00775C  6E11               	movwf	(___flmul@b+2)^0,c
  3386  00775E  0E00               	movlw	0
  3387  007760  6E12               	movwf	(___flmul@b+3)^0,c
  3388  007762                     l1981:
  3389  007762  8E11               	bsf	(___flmul@b+2)^0,7,c
  3390  007764  EFBC  F03B         	goto	l1985
  3391  007768                     l1983:
  3392  007768  0E00               	movlw	0
  3393  00776A  6E0F               	movwf	___flmul@b^0,c
  3394  00776C  0E00               	movlw	0
  3395  00776E  6E10               	movwf	(___flmul@b+1)^0,c
  3396  007770  0E00               	movlw	0
  3397  007772  6E11               	movwf	(___flmul@b+2)^0,c
  3398  007774  0E00               	movlw	0
  3399  007776  6E12               	movwf	(___flmul@b+3)^0,c
  3400  007778                     l1985:
  3401  007778  5016               	movf	(___flmul@a+3)^0,w,c
  3402  00777A  0B80               	andlw	128
  3403  00777C  1A1B               	xorwf	___flmul@sign^0,f,c
  3404  00777E  5016               	movf	(___flmul@a+3)^0,w,c
  3405  007780  2416               	addwf	(___flmul@a+3)^0,w,c
  3406  007782  6E20               	movwf	___flmul@aexp^0,c
  3407  007784  AE15               	btfss	(___flmul@a+2)^0,7,c
  3408  007786  EFC7  F03B         	goto	u2131
  3409  00778A  EFC9  F03B         	goto	u2130
  3410  00778E                     u2131:
  3411  00778E  EFCA  F03B         	goto	l1993
  3412  007792                     u2130:
  3413  007792  8020               	bsf	___flmul@aexp^0,0,c
  3414  007794                     l1993:
  3415  007794  5020               	movf	___flmul@aexp^0,w,c
  3416  007796  B4D8               	btfsc	status,2,c
  3417  007798  EFD0  F03B         	goto	u2141
  3418  00779C  EFD2  F03B         	goto	u2140
  3419  0077A0                     u2141:
  3420  0077A0  EFE5  F03B         	goto	l2001
  3421  0077A4                     u2140:
  3422  0077A4  2820               	incf	___flmul@aexp^0,w,c
  3423  0077A6  A4D8               	btfss	status,2,c
  3424  0077A8  EFD8  F03B         	goto	u2151
  3425  0077AC  EFDA  F03B         	goto	u2150
  3426  0077B0                     u2151:
  3427  0077B0  EFE2  F03B         	goto	l1999
  3428  0077B4                     u2150:
  3429  0077B4  0E00               	movlw	0
  3430  0077B6  6E13               	movwf	___flmul@a^0,c
  3431  0077B8  0E00               	movlw	0
  3432  0077BA  6E14               	movwf	(___flmul@a+1)^0,c
  3433  0077BC  0E00               	movlw	0
  3434  0077BE  6E15               	movwf	(___flmul@a+2)^0,c
  3435  0077C0  0E00               	movlw	0
  3436  0077C2  6E16               	movwf	(___flmul@a+3)^0,c
  3437  0077C4                     l1999:
  3438  0077C4  8E15               	bsf	(___flmul@a+2)^0,7,c
  3439  0077C6  EFED  F03B         	goto	l732
  3440  0077CA                     l2001:
  3441  0077CA  0E00               	movlw	0
  3442  0077CC  6E13               	movwf	___flmul@a^0,c
  3443  0077CE  0E00               	movlw	0
  3444  0077D0  6E14               	movwf	(___flmul@a+1)^0,c
  3445  0077D2  0E00               	movlw	0
  3446  0077D4  6E15               	movwf	(___flmul@a+2)^0,c
  3447  0077D6  0E00               	movlw	0
  3448  0077D8  6E16               	movwf	(___flmul@a+3)^0,c
  3449  0077DA                     l732:
  3450  0077DA  5020               	movf	___flmul@aexp^0,w,c
  3451  0077DC  B4D8               	btfsc	status,2,c
  3452  0077DE  EFF3  F03B         	goto	u2161
  3453  0077E2  EFF5  F03B         	goto	u2160
  3454  0077E6                     u2161:
  3455  0077E6  EFFD  F03B         	goto	l2005
  3456  0077EA                     u2160:
  3457  0077EA  5021               	movf	___flmul@bexp^0,w,c
  3458  0077EC  A4D8               	btfss	status,2,c
  3459  0077EE  EFFB  F03B         	goto	u2171
  3460  0077F2  EFFD  F03B         	goto	u2170
  3461  0077F6                     u2171:
  3462  0077F6  EF07  F03C         	goto	l2009
  3463  0077FA                     u2170:
  3464  0077FA                     l2005:
  3465  0077FA  0E00               	movlw	0
  3466  0077FC  6E0F               	movwf	?___flmul^0,c
  3467  0077FE  0E00               	movlw	0
  3468  007800  6E10               	movwf	(?___flmul+1)^0,c
  3469  007802  0E00               	movlw	0
  3470  007804  6E11               	movwf	(?___flmul+2)^0,c
  3471  007806  0E00               	movlw	0
  3472  007808  6E12               	movwf	(?___flmul+3)^0,c
  3473  00780A  EF9F  F03D         	goto	l736
  3474  00780E                     l2009:
  3475  00780E  5015               	movf	(___flmul@a+2)^0,w,c
  3476  007810  020F               	mulwf	___flmul@b^0,c
  3477  007812  CFF3 F026          	movff	prodl,___flmul@temp
  3478  007816  CFF4 F027          	movff	prodh,___flmul@temp+1
  3479  00781A  5026               	movf	___flmul@temp^0,w,c
  3480  00781C  6E1C               	movwf	___flmul@grs^0,c
  3481  00781E  6A1D               	clrf	(___flmul@grs+1)^0,c
  3482  007820  6A1E               	clrf	(___flmul@grs+2)^0,c
  3483  007822  6A1F               	clrf	(___flmul@grs+3)^0,c
  3484  007824  5027               	movf	(___flmul@temp+1)^0,w,c
  3485  007826  6E22               	movwf	___flmul@prod^0,c
  3486  007828  6A23               	clrf	(___flmul@prod+1)^0,c
  3487  00782A  6A24               	clrf	(___flmul@prod+2)^0,c
  3488  00782C  6A25               	clrf	(___flmul@prod+3)^0,c
  3489  00782E  5014               	movf	(___flmul@a+1)^0,w,c
  3490  007830  0210               	mulwf	(___flmul@b+1)^0,c
  3491  007832  CFF3 F026          	movff	prodl,___flmul@temp
  3492  007836  CFF4 F027          	movff	prodh,___flmul@temp+1
  3493  00783A  5026               	movf	___flmul@temp^0,w,c
  3494  00783C  261C               	addwf	___flmul@grs^0,f,c
  3495  00783E  0E00               	movlw	0
  3496  007840  221D               	addwfc	(___flmul@grs+1)^0,f,c
  3497  007842  221E               	addwfc	(___flmul@grs+2)^0,f,c
  3498  007844  221F               	addwfc	(___flmul@grs+3)^0,f,c
  3499  007846  5027               	movf	(___flmul@temp+1)^0,w,c
  3500  007848  2622               	addwf	___flmul@prod^0,f,c
  3501  00784A  0E00               	movlw	0
  3502  00784C  2223               	addwfc	(___flmul@prod+1)^0,f,c
  3503  00784E  2224               	addwfc	(___flmul@prod+2)^0,f,c
  3504  007850  2225               	addwfc	(___flmul@prod+3)^0,f,c
  3505  007852  5013               	movf	___flmul@a^0,w,c
  3506  007854  0211               	mulwf	(___flmul@b+2)^0,c
  3507  007856  CFF3 F026          	movff	prodl,___flmul@temp
  3508  00785A  CFF4 F027          	movff	prodh,___flmul@temp+1
  3509  00785E  5026               	movf	___flmul@temp^0,w,c
  3510  007860  261C               	addwf	___flmul@grs^0,f,c
  3511  007862  0E00               	movlw	0
  3512  007864  221D               	addwfc	(___flmul@grs+1)^0,f,c
  3513  007866  221E               	addwfc	(___flmul@grs+2)^0,f,c
  3514  007868  221F               	addwfc	(___flmul@grs+3)^0,f,c
  3515  00786A  5027               	movf	(___flmul@temp+1)^0,w,c
  3516  00786C  2622               	addwf	___flmul@prod^0,f,c
  3517  00786E  0E00               	movlw	0
  3518  007870  2223               	addwfc	(___flmul@prod+1)^0,f,c
  3519  007872  2224               	addwfc	(___flmul@prod+2)^0,f,c
  3520  007874  2225               	addwfc	(___flmul@prod+3)^0,f,c
  3521  007876  C01E  F01F         	movff	___flmul@grs+2,___flmul@grs+3
  3522  00787A  C01D  F01E         	movff	___flmul@grs+1,___flmul@grs+2
  3523  00787E  C01C  F01D         	movff	___flmul@grs,___flmul@grs+1
  3524  007882  6A1C               	clrf	___flmul@grs^0,c
  3525  007884  5013               	movf	___flmul@a^0,w,c
  3526  007886  0210               	mulwf	(___flmul@b+1)^0,c
  3527  007888  CFF3 F026          	movff	prodl,___flmul@temp
  3528  00788C  CFF4 F027          	movff	prodh,___flmul@temp+1
  3529  007890  5026               	movf	___flmul@temp^0,w,c
  3530  007892  261C               	addwf	___flmul@grs^0,f,c
  3531  007894  5027               	movf	(___flmul@temp+1)^0,w,c
  3532  007896  221D               	addwfc	(___flmul@grs+1)^0,f,c
  3533  007898  0E00               	movlw	0
  3534  00789A  221E               	addwfc	(___flmul@grs+2)^0,f,c
  3535  00789C  0E00               	movlw	0
  3536  00789E  221F               	addwfc	(___flmul@grs+3)^0,f,c
  3537  0078A0  5014               	movf	(___flmul@a+1)^0,w,c
  3538  0078A2  020F               	mulwf	___flmul@b^0,c
  3539  0078A4  CFF3 F026          	movff	prodl,___flmul@temp
  3540  0078A8  CFF4 F027          	movff	prodh,___flmul@temp+1
  3541  0078AC  5026               	movf	___flmul@temp^0,w,c
  3542  0078AE  261C               	addwf	___flmul@grs^0,f,c
  3543  0078B0  5027               	movf	(___flmul@temp+1)^0,w,c
  3544  0078B2  221D               	addwfc	(___flmul@grs+1)^0,f,c
  3545  0078B4  0E00               	movlw	0
  3546  0078B6  221E               	addwfc	(___flmul@grs+2)^0,f,c
  3547  0078B8  0E00               	movlw	0
  3548  0078BA  221F               	addwfc	(___flmul@grs+3)^0,f,c
  3549  0078BC  C01E  F01F         	movff	___flmul@grs+2,___flmul@grs+3
  3550  0078C0  C01D  F01E         	movff	___flmul@grs+1,___flmul@grs+2
  3551  0078C4  C01C  F01D         	movff	___flmul@grs,___flmul@grs+1
  3552  0078C8  6A1C               	clrf	___flmul@grs^0,c
  3553  0078CA  5013               	movf	___flmul@a^0,w,c
  3554  0078CC  020F               	mulwf	___flmul@b^0,c
  3555  0078CE  CFF3 F026          	movff	prodl,___flmul@temp
  3556  0078D2  CFF4 F027          	movff	prodh,___flmul@temp+1
  3557  0078D6  5026               	movf	___flmul@temp^0,w,c
  3558  0078D8  261C               	addwf	___flmul@grs^0,f,c
  3559  0078DA  5027               	movf	(___flmul@temp+1)^0,w,c
  3560  0078DC  221D               	addwfc	(___flmul@grs+1)^0,f,c
  3561  0078DE  0E00               	movlw	0
  3562  0078E0  221E               	addwfc	(___flmul@grs+2)^0,f,c
  3563  0078E2  0E00               	movlw	0
  3564  0078E4  221F               	addwfc	(___flmul@grs+3)^0,f,c
  3565  0078E6  5015               	movf	(___flmul@a+2)^0,w,c
  3566  0078E8  0210               	mulwf	(___flmul@b+1)^0,c
  3567  0078EA  CFF3 F026          	movff	prodl,___flmul@temp
  3568  0078EE  CFF4 F027          	movff	prodh,___flmul@temp+1
  3569  0078F2  5026               	movf	___flmul@temp^0,w,c
  3570  0078F4  2622               	addwf	___flmul@prod^0,f,c
  3571  0078F6  5027               	movf	(___flmul@temp+1)^0,w,c
  3572  0078F8  2223               	addwfc	(___flmul@prod+1)^0,f,c
  3573  0078FA  0E00               	movlw	0
  3574  0078FC  2224               	addwfc	(___flmul@prod+2)^0,f,c
  3575  0078FE  0E00               	movlw	0
  3576  007900  2225               	addwfc	(___flmul@prod+3)^0,f,c
  3577  007902  5014               	movf	(___flmul@a+1)^0,w,c
  3578  007904  0211               	mulwf	(___flmul@b+2)^0,c
  3579  007906  CFF3 F026          	movff	prodl,___flmul@temp
  3580  00790A  CFF4 F027          	movff	prodh,___flmul@temp+1
  3581  00790E  5026               	movf	___flmul@temp^0,w,c
  3582  007910  2622               	addwf	___flmul@prod^0,f,c
  3583  007912  5027               	movf	(___flmul@temp+1)^0,w,c
  3584  007914  2223               	addwfc	(___flmul@prod+1)^0,f,c
  3585  007916  0E00               	movlw	0
  3586  007918  2224               	addwfc	(___flmul@prod+2)^0,f,c
  3587  00791A  0E00               	movlw	0
  3588  00791C  2225               	addwfc	(___flmul@prod+3)^0,f,c
  3589  00791E  5015               	movf	(___flmul@a+2)^0,w,c
  3590  007920  0211               	mulwf	(___flmul@b+2)^0,c
  3591  007922  CFF3 F026          	movff	prodl,___flmul@temp
  3592  007926  CFF4 F027          	movff	prodh,___flmul@temp+1
  3593  00792A  5026               	movf	___flmul@temp^0,w,c
  3594  00792C  6E17               	movwf	??___flmul^0,c
  3595  00792E  5027               	movf	(___flmul@temp+1)^0,w,c
  3596  007930  6E18               	movwf	(??___flmul+1)^0,c
  3597  007932  6A19               	clrf	(??___flmul+2)^0,c
  3598  007934  6A1A               	clrf	(??___flmul+3)^0,c
  3599  007936  C019  F01A         	movff	??___flmul+2,??___flmul+3
  3600  00793A  C018  F019         	movff	??___flmul+1,??___flmul+2
  3601  00793E  C017  F018         	movff	??___flmul,??___flmul+1
  3602  007942  6A17               	clrf	??___flmul^0,c
  3603  007944  5017               	movf	??___flmul^0,w,c
  3604  007946  2622               	addwf	___flmul@prod^0,f,c
  3605  007948  5018               	movf	(??___flmul+1)^0,w,c
  3606  00794A  2223               	addwfc	(___flmul@prod+1)^0,f,c
  3607  00794C  5019               	movf	(??___flmul+2)^0,w,c
  3608  00794E  2224               	addwfc	(___flmul@prod+2)^0,f,c
  3609  007950  501A               	movf	(??___flmul+3)^0,w,c
  3610  007952  2225               	addwfc	(___flmul@prod+3)^0,f,c
  3611  007954  C01C  F017         	movff	___flmul@grs,??___flmul
  3612  007958  C01D  F018         	movff	___flmul@grs+1,??___flmul+1
  3613  00795C  C01E  F019         	movff	___flmul@grs+2,??___flmul+2
  3614  007960  C01F  F01A         	movff	___flmul@grs+3,??___flmul+3
  3615  007964  0E19               	movlw	25
  3616  007966  EFBA  F03C         	goto	u2180
  3617  00796A                     u2185:
  3618  00796A  90D8               	bcf	status,0,c
  3619  00796C  321A               	rrcf	(??___flmul+3)^0,f,c
  3620  00796E  3219               	rrcf	(??___flmul+2)^0,f,c
  3621  007970  3218               	rrcf	(??___flmul+1)^0,f,c
  3622  007972  3217               	rrcf	??___flmul^0,f,c
  3623  007974                     u2180:
  3624  007974  2EE8               	decfsz	wreg,f,c
  3625  007976  EFB5  F03C         	goto	u2185
  3626  00797A  5017               	movf	??___flmul^0,w,c
  3627  00797C  2622               	addwf	___flmul@prod^0,f,c
  3628  00797E  5018               	movf	(??___flmul+1)^0,w,c
  3629  007980  2223               	addwfc	(___flmul@prod+1)^0,f,c
  3630  007982  5019               	movf	(??___flmul+2)^0,w,c
  3631  007984  2224               	addwfc	(___flmul@prod+2)^0,f,c
  3632  007986  501A               	movf	(??___flmul+3)^0,w,c
  3633  007988  2225               	addwfc	(___flmul@prod+3)^0,f,c
  3634  00798A  C01E  F01F         	movff	___flmul@grs+2,___flmul@grs+3
  3635  00798E  C01D  F01E         	movff	___flmul@grs+1,___flmul@grs+2
  3636  007992  C01C  F01D         	movff	___flmul@grs,___flmul@grs+1
  3637  007996  6A1C               	clrf	___flmul@grs^0,c
  3638  007998  5020               	movf	___flmul@aexp^0,w,c
  3639  00799A  C021  F017         	movff	___flmul@bexp,??___flmul
  3640  00799E  6A18               	clrf	(??___flmul+1)^0,c
  3641  0079A0  2617               	addwf	??___flmul^0,f,c
  3642  0079A2  0E00               	movlw	0
  3643  0079A4  2218               	addwfc	(??___flmul+1)^0,f,c
  3644  0079A6  0E82               	movlw	130
  3645  0079A8  2417               	addwf	??___flmul^0,w,c
  3646  0079AA  6E26               	movwf	___flmul@temp^0,c
  3647  0079AC  0EFF               	movlw	255
  3648  0079AE  2018               	addwfc	(??___flmul+1)^0,w,c
  3649  0079B0  6E27               	movwf	(___flmul@temp+1)^0,c
  3650  0079B2  EFF0  F03C         	goto	l2057
  3651  0079B6                     l2051:
  3652  0079B6  90D8               	bcf	status,0,c
  3653  0079B8  3622               	rlcf	___flmul@prod^0,f,c
  3654  0079BA  3623               	rlcf	(___flmul@prod+1)^0,f,c
  3655  0079BC  3624               	rlcf	(___flmul@prod+2)^0,f,c
  3656  0079BE  3625               	rlcf	(___flmul@prod+3)^0,f,c
  3657  0079C0  AE1F               	btfss	(___flmul@grs+3)^0,7,c
  3658  0079C2  EFE5  F03C         	goto	u2191
  3659  0079C6  EFE7  F03C         	goto	u2190
  3660  0079CA                     u2191:
  3661  0079CA  EFE8  F03C         	goto	l739
  3662  0079CE                     u2190:
  3663  0079CE  8022               	bsf	___flmul@prod^0,0,c
  3664  0079D0                     l739:
  3665  0079D0  90D8               	bcf	status,0,c
  3666  0079D2  361C               	rlcf	___flmul@grs^0,f,c
  3667  0079D4  361D               	rlcf	(___flmul@grs+1)^0,f,c
  3668  0079D6  361E               	rlcf	(___flmul@grs+2)^0,f,c
  3669  0079D8  361F               	rlcf	(___flmul@grs+3)^0,f,c
  3670  0079DA  0626               	decf	___flmul@temp^0,f,c
  3671  0079DC  A0D8               	btfss	status,0,c
  3672  0079DE  0627               	decf	(___flmul@temp+1)^0,f,c
  3673  0079E0                     l2057:
  3674  0079E0  AE24               	btfss	(___flmul@prod+2)^0,7,c
  3675  0079E2  EFF5  F03C         	goto	u2201
  3676  0079E6  EFF7  F03C         	goto	u2200
  3677  0079EA                     u2201:
  3678  0079EA  EFDB  F03C         	goto	l2051
  3679  0079EE                     u2200:
  3680  0079EE  0E00               	movlw	0
  3681  0079F0  6E20               	movwf	___flmul@aexp^0,c
  3682  0079F2  AE1F               	btfss	(___flmul@grs+3)^0,7,c
  3683  0079F4  EFFE  F03C         	goto	u2211
  3684  0079F8  EF00  F03D         	goto	u2210
  3685  0079FC                     u2211:
  3686  0079FC  EF24  F03D         	goto	l741
  3687  007A00                     u2210:
  3688  007A00  0EFF               	movlw	255
  3689  007A02  141C               	andwf	___flmul@grs^0,w,c
  3690  007A04  6E17               	movwf	??___flmul^0,c
  3691  007A06  0EFF               	movlw	255
  3692  007A08  141D               	andwf	(___flmul@grs+1)^0,w,c
  3693  007A0A  6E18               	movwf	(??___flmul+1)^0,c
  3694  007A0C  0EFF               	movlw	255
  3695  007A0E  141E               	andwf	(___flmul@grs+2)^0,w,c
  3696  007A10  6E19               	movwf	(??___flmul+2)^0,c
  3697  007A12  0E7F               	movlw	127
  3698  007A14  141F               	andwf	(___flmul@grs+3)^0,w,c
  3699  007A16  6E1A               	movwf	(??___flmul+3)^0,c
  3700  007A18  5017               	movf	??___flmul^0,w,c
  3701  007A1A  1018               	iorwf	(??___flmul+1)^0,w,c
  3702  007A1C  1019               	iorwf	(??___flmul+2)^0,w,c
  3703  007A1E  101A               	iorwf	(??___flmul+3)^0,w,c
  3704  007A20  B4D8               	btfsc	status,2,c
  3705  007A22  EF15  F03D         	goto	u2221
  3706  007A26  EF17  F03D         	goto	u2220
  3707  007A2A                     u2221:
  3708  007A2A  EF1B  F03D         	goto	l742
  3709  007A2E                     u2220:
  3710  007A2E                     l2065:
  3711  007A2E  0E01               	movlw	1
  3712  007A30  6E20               	movwf	___flmul@aexp^0,c
  3713  007A32  EF24  F03D         	goto	l741
  3714  007A36                     l742:
  3715  007A36  A022               	btfss	___flmul@prod^0,0,c
  3716  007A38  EF20  F03D         	goto	u2231
  3717  007A3C  EF22  F03D         	goto	u2230
  3718  007A40                     u2231:
  3719  007A40  EF24  F03D         	goto	l741
  3720  007A44                     u2230:
  3721  007A44  EF17  F03D         	goto	l2065
  3722  007A48                     l741:
  3723  007A48  5020               	movf	___flmul@aexp^0,w,c
  3724  007A4A  B4D8               	btfsc	status,2,c
  3725  007A4C  EF2A  F03D         	goto	u2241
  3726  007A50  EF2C  F03D         	goto	u2240
  3727  007A54                     u2241:
  3728  007A54  EF50  F03D         	goto	l2077
  3729  007A58                     u2240:
  3730  007A58  0E01               	movlw	1
  3731  007A5A  2622               	addwf	___flmul@prod^0,f,c
  3732  007A5C  0E00               	movlw	0
  3733  007A5E  2223               	addwfc	(___flmul@prod+1)^0,f,c
  3734  007A60  2224               	addwfc	(___flmul@prod+2)^0,f,c
  3735  007A62  2225               	addwfc	(___flmul@prod+3)^0,f,c
  3736  007A64  A025               	btfss	(___flmul@prod+3)^0,0,c
  3737  007A66  EF37  F03D         	goto	u2251
  3738  007A6A  EF39  F03D         	goto	u2250
  3739  007A6E                     u2251:
  3740  007A6E  EF50  F03D         	goto	l2077
  3741  007A72                     u2250:
  3742  007A72  C022  F017         	movff	___flmul@prod,??___flmul
  3743  007A76  C023  F018         	movff	___flmul@prod+1,??___flmul+1
  3744  007A7A  C024  F019         	movff	___flmul@prod+2,??___flmul+2
  3745  007A7E  C025  F01A         	movff	___flmul@prod+3,??___flmul+3
  3746  007A82  341A               	rlcf	(??___flmul+3)^0,w,c
  3747  007A84  321A               	rrcf	(??___flmul+3)^0,f,c
  3748  007A86  3219               	rrcf	(??___flmul+2)^0,f,c
  3749  007A88  3218               	rrcf	(??___flmul+1)^0,f,c
  3750  007A8A  3217               	rrcf	??___flmul^0,f,c
  3751  007A8C  C017  F022         	movff	??___flmul,___flmul@prod
  3752  007A90  C018  F023         	movff	??___flmul+1,___flmul@prod+1
  3753  007A94  C019  F024         	movff	??___flmul+2,___flmul@prod+2
  3754  007A98  C01A  F025         	movff	??___flmul+3,___flmul@prod+3
  3755  007A9C  4A26               	infsnz	___flmul@temp^0,f,c
  3756  007A9E  2A27               	incf	(___flmul@temp+1)^0,f,c
  3757  007AA0                     l2077:
  3758  007AA0  BE27               	btfsc	(___flmul@temp+1)^0,7,c
  3759  007AA2  EF5B  F03D         	goto	u2261
  3760  007AA6  5027               	movf	(___flmul@temp+1)^0,w,c
  3761  007AA8  E108               	bnz	u2260
  3762  007AAA  2826               	incf	___flmul@temp^0,w,c
  3763  007AAC  A0D8               	btfss	status,0,c
  3764  007AAE  EF5B  F03D         	goto	u2261
  3765  007AB2  EF5D  F03D         	goto	u2260
  3766  007AB6                     u2261:
  3767  007AB6  EF67  F03D         	goto	l2081
  3768  007ABA                     u2260:
  3769  007ABA  0E00               	movlw	0
  3770  007ABC  6E22               	movwf	___flmul@prod^0,c
  3771  007ABE  0E00               	movlw	0
  3772  007AC0  6E23               	movwf	(___flmul@prod+1)^0,c
  3773  007AC2  0E80               	movlw	128
  3774  007AC4  6E24               	movwf	(___flmul@prod+2)^0,c
  3775  007AC6  0E7F               	movlw	127
  3776  007AC8  6E25               	movwf	(___flmul@prod+3)^0,c
  3777  007ACA  EF95  F03D         	goto	l2093
  3778  007ACE                     l2081:
  3779  007ACE  BE27               	btfsc	(___flmul@temp+1)^0,7,c
  3780  007AD0  EF74  F03D         	goto	u2270
  3781  007AD4  5027               	movf	(___flmul@temp+1)^0,w,c
  3782  007AD6  E106               	bnz	u2271
  3783  007AD8  0426               	decf	___flmul@temp^0,w,c
  3784  007ADA  B0D8               	btfsc	status,0,c
  3785  007ADC  EF72  F03D         	goto	u2271
  3786  007AE0  EF74  F03D         	goto	u2270
  3787  007AE4                     u2271:
  3788  007AE4  EF80  F03D         	goto	l749
  3789  007AE8                     u2270:
  3790  007AE8  0E00               	movlw	0
  3791  007AEA  6E22               	movwf	___flmul@prod^0,c
  3792  007AEC  0E00               	movlw	0
  3793  007AEE  6E23               	movwf	(___flmul@prod+1)^0,c
  3794  007AF0  0E00               	movlw	0
  3795  007AF2  6E24               	movwf	(___flmul@prod+2)^0,c
  3796  007AF4  0E00               	movlw	0
  3797  007AF6  6E25               	movwf	(___flmul@prod+3)^0,c
  3798  007AF8  0E00               	movlw	0
  3799  007AFA  6E1B               	movwf	___flmul@sign^0,c
  3800  007AFC  EF95  F03D         	goto	l2093
  3801  007B00                     l749:
  3802  007B00  C026  F021         	movff	___flmul@temp,___flmul@bexp
  3803  007B04  0EFF               	movlw	255
  3804  007B06  1622               	andwf	___flmul@prod^0,f,c
  3805  007B08  0EFF               	movlw	255
  3806  007B0A  1623               	andwf	(___flmul@prod+1)^0,f,c
  3807  007B0C  0E7F               	movlw	127
  3808  007B0E  1624               	andwf	(___flmul@prod+2)^0,f,c
  3809  007B10  0E00               	movlw	0
  3810  007B12  1625               	andwf	(___flmul@prod+3)^0,f,c
  3811  007B14  A021               	btfss	___flmul@bexp^0,0,c
  3812  007B16  EF8F  F03D         	goto	u2281
  3813  007B1A  EF91  F03D         	goto	u2280
  3814  007B1E                     u2281:
  3815  007B1E  EF92  F03D         	goto	l2091
  3816  007B22                     u2280:
  3817  007B22  8E24               	bsf	(___flmul@prod+2)^0,7,c
  3818  007B24                     l2091:
  3819  007B24  90D8               	bcf	status,0,c
  3820  007B26  3021               	rrcf	___flmul@bexp^0,w,c
  3821  007B28  6E25               	movwf	(___flmul@prod+3)^0,c
  3822  007B2A                     l2093:
  3823  007B2A  501B               	movf	___flmul@sign^0,w,c
  3824  007B2C  1225               	iorwf	(___flmul@prod+3)^0,f,c
  3825  007B2E  C022  F00F         	movff	___flmul@prod,?___flmul
  3826  007B32  C023  F010         	movff	___flmul@prod+1,?___flmul+1
  3827  007B36  C024  F011         	movff	___flmul@prod+2,?___flmul+2
  3828  007B3A  C025  F012         	movff	___flmul@prod+3,?___flmul+3
  3829  007B3E                     l736:
  3830  007B3E  0012               	return		;funcret
  3831  007B40                     __end_of___flmul:
  3832                           	callstack 0
  3833                           
  3834 ;; *************** function ___fleq *****************
  3835 ;; Defined at:
  3836 ;;		line 4 in file "C:\Program Files\Microchip\xc8\v2.32\pic\sources\c99\common\fleq.c"
  3837 ;; Parameters:    Size  Location     Type
  3838 ;;  ff1             4    6[COMRAM] unsigned char 
  3839 ;;  ff2             4   10[COMRAM] unsigned char 
  3840 ;; Auto vars:     Size  Location     Type
  3841 ;;		None
  3842 ;; Return value:  Size  Location     Type
  3843 ;;		None               void
  3844 ;; Registers used:
  3845 ;;		wreg, status,2, status,0
  3846 ;; Tracked objects:
  3847 ;;		On entry : 0/0
  3848 ;;		On exit  : 0/0
  3849 ;;		Unchanged: 0/0
  3850 ;; Data sizes:     COMRAM   BANK0   BANK1   BANK2   BANK3   BANK4   BANK5   BANK6   BANK7
  3851 ;;      Params:         8       0       0       0       0       0       0       0       0
  3852 ;;      Locals:         0       0       0       0       0       0       0       0       0
  3853 ;;      Temps:          4       0       0       0       0       0       0       0       0
  3854 ;;      Totals:        12       0       0       0       0       0       0       0       0
  3855 ;;Total ram usage:       12 bytes
  3856 ;; Hardware stack levels used: 1
  3857 ;; This function calls:
  3858 ;;		Nothing
  3859 ;; This function is called by:
  3860 ;;		_cancion1
  3861 ;; This function uses a non-reentrant model
  3862 ;;
  3863                           
  3864                           	psect	text12
  3865  00672C                     __ptext12:
  3866                           	callstack 0
  3867  00672C                     ___fleq:
  3868                           	callstack 29
  3869  00672C  0E00               	movlw	0
  3870  00672E  1407               	andwf	___fleq@ff1^0,w,c
  3871  006730  6E0F               	movwf	??___fleq^0,c
  3872  006732  0E00               	movlw	0
  3873  006734  1408               	andwf	(___fleq@ff1+1)^0,w,c
  3874  006736  6E10               	movwf	(??___fleq+1)^0,c
  3875  006738  0E80               	movlw	128
  3876  00673A  1409               	andwf	(___fleq@ff1+2)^0,w,c
  3877  00673C  6E11               	movwf	(??___fleq+2)^0,c
  3878  00673E  0E7F               	movlw	127
  3879  006740  140A               	andwf	(___fleq@ff1+3)^0,w,c
  3880  006742  6E12               	movwf	(??___fleq+3)^0,c
  3881  006744  500F               	movf	??___fleq^0,w,c
  3882  006746  1010               	iorwf	(??___fleq+1)^0,w,c
  3883  006748  1011               	iorwf	(??___fleq+2)^0,w,c
  3884  00674A  1012               	iorwf	(??___fleq+3)^0,w,c
  3885  00674C  A4D8               	btfss	status,2,c
  3886  00674E  EFAB  F033         	goto	u2291
  3887  006752  EFAD  F033         	goto	u2290
  3888  006756                     u2291:
  3889  006756  EFB5  F033         	goto	l2103
  3890  00675A                     u2290:
  3891  00675A  0E00               	movlw	0
  3892  00675C  6E07               	movwf	___fleq@ff1^0,c
  3893  00675E  0E00               	movlw	0
  3894  006760  6E08               	movwf	(___fleq@ff1+1)^0,c
  3895  006762  0E00               	movlw	0
  3896  006764  6E09               	movwf	(___fleq@ff1+2)^0,c
  3897  006766  0E00               	movlw	0
  3898  006768  6E0A               	movwf	(___fleq@ff1+3)^0,c
  3899  00676A                     l2103:
  3900  00676A  0E00               	movlw	0
  3901  00676C  140B               	andwf	___fleq@ff2^0,w,c
  3902  00676E  6E0F               	movwf	??___fleq^0,c
  3903  006770  0E00               	movlw	0
  3904  006772  140C               	andwf	(___fleq@ff2+1)^0,w,c
  3905  006774  6E10               	movwf	(??___fleq+1)^0,c
  3906  006776  0E80               	movlw	128
  3907  006778  140D               	andwf	(___fleq@ff2+2)^0,w,c
  3908  00677A  6E11               	movwf	(??___fleq+2)^0,c
  3909  00677C  0E7F               	movlw	127
  3910  00677E  140E               	andwf	(___fleq@ff2+3)^0,w,c
  3911  006780  6E12               	movwf	(??___fleq+3)^0,c
  3912  006782  500F               	movf	??___fleq^0,w,c
  3913  006784  1010               	iorwf	(??___fleq+1)^0,w,c
  3914  006786  1011               	iorwf	(??___fleq+2)^0,w,c
  3915  006788  1012               	iorwf	(??___fleq+3)^0,w,c
  3916  00678A  A4D8               	btfss	status,2,c
  3917  00678C  EFCA  F033         	goto	u2301
  3918  006790  EFCC  F033         	goto	u2300
  3919  006794                     u2301:
  3920  006794  EFD4  F033         	goto	l2107
  3921  006798                     u2300:
  3922  006798  0E00               	movlw	0
  3923  00679A  6E0B               	movwf	___fleq@ff2^0,c
  3924  00679C  0E00               	movlw	0
  3925  00679E  6E0C               	movwf	(___fleq@ff2+1)^0,c
  3926  0067A0  0E00               	movlw	0
  3927  0067A2  6E0D               	movwf	(___fleq@ff2+2)^0,c
  3928  0067A4  0E00               	movlw	0
  3929  0067A6  6E0E               	movwf	(___fleq@ff2+3)^0,c
  3930  0067A8                     l2107:
  3931  0067A8  500B               	movf	___fleq@ff2^0,w,c
  3932  0067AA  1807               	xorwf	___fleq@ff1^0,w,c
  3933  0067AC  E10F               	bnz	u2310
  3934  0067AE  500C               	movf	(___fleq@ff2+1)^0,w,c
  3935  0067B0  1808               	xorwf	(___fleq@ff1+1)^0,w,c
  3936  0067B2  E10C               	bnz	u2310
  3937  0067B4  500D               	movf	(___fleq@ff2+2)^0,w,c
  3938  0067B6  1809               	xorwf	(___fleq@ff1+2)^0,w,c
  3939  0067B8  E109               	bnz	u2310
  3940  0067BA  500E               	movf	(___fleq@ff2+3)^0,w,c
  3941  0067BC  180A               	xorwf	(___fleq@ff1+3)^0,w,c
  3942  0067BE  B4D8               	btfsc	status,2,c
  3943  0067C0  EFE4  F033         	goto	u2311
  3944  0067C4  EFE6  F033         	goto	u2310
  3945  0067C8                     u2311:
  3946  0067C8  EFE9  F033         	goto	l2111
  3947  0067CC                     u2310:
  3948  0067CC  90D8               	bcf	status,0,c
  3949  0067CE  EFEA  F033         	goto	l377
  3950  0067D2                     l2111:
  3951  0067D2  80D8               	bsf	status,0,c
  3952  0067D4                     l377:
  3953  0067D4  0012               	return		;funcret
  3954  0067D6                     __end_of___fleq:
  3955                           	callstack 0
  3956  0000                     
  3957                           	psect	rparam
  3958  0000                     
  3959                           	psect	idloc
  3960                           
  3961                           ;Config register IDLOC0 @ 0x200000
  3962                           ;	unspecified, using default values
  3963  200000                     	org	2097152
  3964  200000  FF                 	db	255
  3965                           
  3966                           ;Config register IDLOC1 @ 0x200001
  3967                           ;	unspecified, using default values
  3968  200001                     	org	2097153
  3969  200001  FF                 	db	255
  3970                           
  3971                           ;Config register IDLOC2 @ 0x200002
  3972                           ;	unspecified, using default values
  3973  200002                     	org	2097154
  3974  200002  FF                 	db	255
  3975                           
  3976                           ;Config register IDLOC3 @ 0x200003
  3977                           ;	unspecified, using default values
  3978  200003                     	org	2097155
  3979  200003  FF                 	db	255
  3980                           
  3981                           ;Config register IDLOC4 @ 0x200004
  3982                           ;	unspecified, using default values
  3983  200004                     	org	2097156
  3984  200004  FF                 	db	255
  3985                           
  3986                           ;Config register IDLOC5 @ 0x200005
  3987                           ;	unspecified, using default values
  3988  200005                     	org	2097157
  3989  200005  FF                 	db	255
  3990                           
  3991                           ;Config register IDLOC6 @ 0x200006
  3992                           ;	unspecified, using default values
  3993  200006                     	org	2097158
  3994  200006  FF                 	db	255
  3995                           
  3996                           ;Config register IDLOC7 @ 0x200007
  3997                           ;	unspecified, using default values
  3998  200007                     	org	2097159
  3999  200007  FF                 	db	255
  4000                           
  4001                           	psect	config
  4002                           
  4003                           ;Config register CONFIG1L @ 0x300000
  4004                           ;	PLL Prescaler Selection bits
  4005                           ;	PLLDIV = 5, Divide by 5 (20 MHz oscillator input)
  4006                           ;	System Clock Postscaler Selection bits
  4007                           ;	CPUDIV = OSC1_PLL2, [Primary Oscillator Src: /1][96 MHz PLL Src: /2]
  4008                           ;	USB Clock Selection bit (used in Full-Speed USB mode only; UCFG:FSEN = 1)
  4009                           ;	USBDIV = 2, USB clock source comes from the 96 MHz PLL divided by 2
  4010  300000                     	org	3145728
  4011  300000  24                 	db	36
  4012                           
  4013                           ;Config register CONFIG1H @ 0x300001
  4014                           ;	Oscillator Selection bits
  4015                           ;	FOSC = HS, HS oscillator (HS)
  4016                           ;	Fail-Safe Clock Monitor Enable bit
  4017                           ;	FCMEN = OFF, Fail-Safe Clock Monitor disabled
  4018                           ;	Internal/External Oscillator Switchover bit
  4019                           ;	IESO = OFF, Oscillator Switchover mode disabled
  4020  300001                     	org	3145729
  4021  300001  0C                 	db	12
  4022                           
  4023                           ;Config register CONFIG2L @ 0x300002
  4024                           ;	Power-up Timer Enable bit
  4025                           ;	PWRT = OFF, PWRT disabled
  4026                           ;	Brown-out Reset Enable bits
  4027                           ;	BOR = ON, Brown-out Reset enabled in hardware only (SBOREN is disabled)
  4028                           ;	Brown-out Reset Voltage bits
  4029                           ;	BORV = 3, Minimum setting 2.05V
  4030                           ;	USB Voltage Regulator Enable bit
  4031                           ;	VREGEN = OFF, USB voltage regulator disabled
  4032  300002                     	org	3145730
  4033  300002  1F                 	db	31
  4034                           
  4035                           ;Config register CONFIG2H @ 0x300003
  4036                           ;	Watchdog Timer Enable bit
  4037                           ;	WDT = ON, WDT enabled
  4038                           ;	Watchdog Timer Postscale Select bits
  4039                           ;	WDTPS = 32768, 1:32768
  4040  300003                     	org	3145731
  4041  300003  1F                 	db	31
  4042                           
  4043                           ; Padding undefined space
  4044  300004                     	org	3145732
  4045  300004  FF                 	db	255
  4046                           
  4047                           ;Config register CONFIG3H @ 0x300005
  4048                           ;	CCP2 MUX bit
  4049                           ;	CCP2MX = ON, CCP2 input/output is multiplexed with RC1
  4050                           ;	PORTB A/D Enable bit
  4051                           ;	PBADEN = ON, PORTB<4:0> pins are configured as analog input channels on Reset
  4052                           ;	Low-Power Timer 1 Oscillator Enable bit
  4053                           ;	LPT1OSC = OFF, Timer1 configured for higher power operation
  4054                           ;	MCLR Pin Enable bit
  4055                           ;	MCLRE = ON, MCLR pin enabled; RE3 input pin disabled
  4056  300005                     	org	3145733
  4057  300005  83                 	db	131
  4058                           
  4059                           ;Config register CONFIG4L @ 0x300006
  4060                           ;	Stack Full/Underflow Reset Enable bit
  4061                           ;	STVREN = ON, Stack full/underflow will cause Reset
  4062                           ;	Single-Supply ICSP Enable bit
  4063                           ;	LVP = ON, Single-Supply ICSP enabled
  4064                           ;	Dedicated In-Circuit Debug/Programming Port (ICPORT) Enable bit
  4065                           ;	ICPRT = OFF, ICPORT disabled
  4066                           ;	Extended Instruction Set Enable bit
  4067                           ;	XINST = OFF, Instruction set extension and Indexed Addressing mode disabled (Legacy mo
      +                          de)
  4068                           ;	Background Debugger Enable bit
  4069                           ;	DEBUG = 0x1, unprogrammed default
  4070  300006                     	org	3145734
  4071  300006  85                 	db	133
  4072                           
  4073                           ; Padding undefined space
  4074  300007                     	org	3145735
  4075  300007  FF                 	db	255
  4076                           
  4077                           ;Config register CONFIG5L @ 0x300008
  4078                           ;	Code Protection bit
  4079                           ;	CP0 = OFF, Block 0 (000800-001FFFh) is not code-protected
  4080                           ;	Code Protection bit
  4081                           ;	CP1 = OFF, Block 1 (002000-003FFFh) is not code-protected
  4082                           ;	Code Protection bit
  4083                           ;	CP2 = OFF, Block 2 (004000-005FFFh) is not code-protected
  4084                           ;	Code Protection bit
  4085                           ;	CP3 = OFF, Block 3 (006000-007FFFh) is not code-protected
  4086  300008                     	org	3145736
  4087  300008  0F                 	db	15
  4088                           
  4089                           ;Config register CONFIG5H @ 0x300009
  4090                           ;	Boot Block Code Protection bit
  4091                           ;	CPB = OFF, Boot block (000000-0007FFh) is not code-protected
  4092                           ;	Data EEPROM Code Protection bit
  4093                           ;	CPD = OFF, Data EEPROM is not code-protected
  4094  300009                     	org	3145737
  4095  300009  C0                 	db	192
  4096                           
  4097                           ;Config register CONFIG6L @ 0x30000A
  4098                           ;	Write Protection bit
  4099                           ;	WRT0 = OFF, Block 0 (000800-001FFFh) is not write-protected
  4100                           ;	Write Protection bit
  4101                           ;	WRT1 = OFF, Block 1 (002000-003FFFh) is not write-protected
  4102                           ;	Write Protection bit
  4103                           ;	WRT2 = OFF, Block 2 (004000-005FFFh) is not write-protected
  4104                           ;	Write Protection bit
  4105                           ;	WRT3 = OFF, Block 3 (006000-007FFFh) is not write-protected
  4106  30000A                     	org	3145738
  4107  30000A  0F                 	db	15
  4108                           
  4109                           ;Config register CONFIG6H @ 0x30000B
  4110                           ;	Configuration Register Write Protection bit
  4111                           ;	WRTC = OFF, Configuration registers (300000-3000FFh) are not write-protected
  4112                           ;	Boot Block Write Protection bit
  4113                           ;	WRTB = OFF, Boot block (000000-0007FFh) is not write-protected
  4114                           ;	Data EEPROM Write Protection bit
  4115                           ;	WRTD = OFF, Data EEPROM is not write-protected
  4116  30000B                     	org	3145739
  4117  30000B  E0                 	db	224
  4118                           
  4119                           ;Config register CONFIG7L @ 0x30000C
  4120                           ;	Table Read Protection bit
  4121                           ;	EBTR0 = OFF, Block 0 (000800-001FFFh) is not protected from table reads executed in ot
      +                          her blocks
  4122                           ;	Table Read Protection bit
  4123                           ;	EBTR1 = OFF, Block 1 (002000-003FFFh) is not protected from table reads executed in ot
      +                          her blocks
  4124                           ;	Table Read Protection bit
  4125                           ;	EBTR2 = OFF, Block 2 (004000-005FFFh) is not protected from table reads executed in ot
      +                          her blocks
  4126                           ;	Table Read Protection bit
  4127                           ;	EBTR3 = OFF, Block 3 (006000-007FFFh) is not protected from table reads executed in ot
      +                          her blocks
  4128  30000C                     	org	3145740
  4129  30000C  0F                 	db	15
  4130                           
  4131                           ;Config register CONFIG7H @ 0x30000D
  4132                           ;	Boot Block Table Read Protection bit
  4133                           ;	EBTRB = OFF, Boot block (000000-0007FFh) is not protected from table reads executed in
      +                           other blocks
  4134  30000D                     	org	3145741
  4135  30000D  40                 	db	64
  4136                           tosu	equ	0xFFF
  4137                           tosh	equ	0xFFE
  4138                           tosl	equ	0xFFD
  4139                           stkptr	equ	0xFFC
  4140                           pclatu	equ	0xFFB
  4141                           pclath	equ	0xFFA
  4142                           pcl	equ	0xFF9
  4143                           tblptru	equ	0xFF8
  4144                           tblptrh	equ	0xFF7
  4145                           tblptrl	equ	0xFF6
  4146                           tablat	equ	0xFF5
  4147                           prodh	equ	0xFF4
  4148                           prodl	equ	0xFF3
  4149                           indf0	equ	0xFEF
  4150                           postinc0	equ	0xFEE
  4151                           postdec0	equ	0xFED
  4152                           preinc0	equ	0xFEC
  4153                           plusw0	equ	0xFEB
  4154                           fsr0h	equ	0xFEA
  4155                           fsr0l	equ	0xFE9
  4156                           wreg	equ	0xFE8
  4157                           indf1	equ	0xFE7
  4158                           postinc1	equ	0xFE6
  4159                           postdec1	equ	0xFE5
  4160                           preinc1	equ	0xFE4
  4161                           plusw1	equ	0xFE3
  4162                           fsr1h	equ	0xFE2
  4163                           fsr1l	equ	0xFE1
  4164                           bsr	equ	0xFE0
  4165                           indf2	equ	0xFDF
  4166                           postinc2	equ	0xFDE
  4167                           postdec2	equ	0xFDD
  4168                           preinc2	equ	0xFDC
  4169                           plusw2	equ	0xFDB
  4170                           fsr2h	equ	0xFDA
  4171                           fsr2l	equ	0xFD9
  4172                           status	equ	0xFD8

Data Sizes:
    Strings     0
    Constant    0
    Data        530
    BSS         20
    Persistent  0
    Stack       0

Auto Spaces:
    Space          Size  Autos    Used
    COMRAM           95     70      92
    BANK0           160      0       0
    BANK1           256      0       0
    BANK2           256      0       0
    BANK3           256      0       0
    BANK4           256      0       0
    BANK5           256      0       0
    BANK6           256      0       0
    BANK7           256      0       0

Pointer List with Targets:

    None.

Critical Paths under _main in COMRAM

    _main->_cancion1
    _cancion1->_tocar_nota
    _tocar_nota->___fltol
    _silencio->___fltol
    ___fltol->___fldiv
    ___fltol->___flmul
    ___flsub->___fldiv
    ___fldiv->___xxtofl
    ___flmul->___xxtofl
    ___fleq->___wmul

Critical Paths under _main in BANK0

    None.

Critical Paths under _main in BANK1

    None.

Critical Paths under _main in BANK2

    None.

Critical Paths under _main in BANK3

    None.

Critical Paths under _main in BANK4

    None.

Critical Paths under _main in BANK5

    None.

Critical Paths under _main in BANK6

    None.

Critical Paths under _main in BANK7

    None.

Call Graph Tables:

 ---------------------------------------------------------------------------------
 (Depth) Function   	        Calls       Base Space   Used Autos Params    Refs
 ---------------------------------------------------------------------------------
 (0) _main                                                 2     2      0   18458
                                             68 COMRAM     2     2      0
                           _cancion1
                             _confT0
 ---------------------------------------------------------------------------------
 (1) _confT0                                               0     0      0       0
 ---------------------------------------------------------------------------------
 (1) _cancion1                                             6     6      0   18458
                                             62 COMRAM     6     6      0
                             ___fleq
                            ___flmul
                            ___fltol
                             ___wmul
                           ___xxtofl
                           _silencio
                         _tocar_nota
 ---------------------------------------------------------------------------------
 (2) _tocar_nota                                          13     7      6    6668
                                             49 COMRAM    13     7      6
                            ___fldiv
                            ___flmul (ARG)
                            ___flsub
                            ___fltol
                             ___wmul (ARG)
                           ___xxtofl
 ---------------------------------------------------------------------------------
 (2) _silencio                                            11     5      6    6668
                                             49 COMRAM    11     5      6
                            ___fldiv
                            ___flmul (ARG)
                            ___flsub
                            ___fltol
                             ___wmul (ARG)
                           ___xxtofl
 ---------------------------------------------------------------------------------
 (3) ___xxtofl                                            14    10      4     626
                                              0 COMRAM    14    10      4
 ---------------------------------------------------------------------------------
 (3) ___fltol                                             10     6      4     837
                                             39 COMRAM    10     6      4
                            ___fldiv (ARG)
                            ___flmul (ARG)
                             ___wmul (ARG)
                           ___xxtofl (ARG)
 ---------------------------------------------------------------------------------
 (3) ___flsub                                              8     0      8    2737
                                             39 COMRAM     8     0      8
                            ___fladd
                            ___fldiv (ARG)
 ---------------------------------------------------------------------------------
 (4) ___fladd                                             16     8      8    2262
                                              0 COMRAM    16     8      8
 ---------------------------------------------------------------------------------
 (3) ___fldiv                                             25    17      8    2159
                                             14 COMRAM    25    17      8
                           ___xxtofl (ARG)
 ---------------------------------------------------------------------------------
 (2) ___wmul                                               6     2      4    1071
                                              0 COMRAM     6     2      4
 ---------------------------------------------------------------------------------
 (2) ___flmul                                             25    17      8    1896
                                             14 COMRAM    25    17      8
                             ___wmul (ARG)
                           ___xxtofl (ARG)
 ---------------------------------------------------------------------------------
 (2) ___fleq                                              12     4      8     646
                                              6 COMRAM    12     4      8
                             ___wmul (ARG)
 ---------------------------------------------------------------------------------
 Estimated maximum stack depth 4
 ---------------------------------------------------------------------------------

 Call Graph Graphs:

 _main (ROOT)
   _cancion1
     ___fleq
       ___wmul (ARG)
     ___flmul
       ___wmul (ARG)
       ___xxtofl (ARG)
     ___fltol
       ___fldiv (ARG)
         ___xxtofl (ARG)
       ___flmul (ARG)
       ___wmul (ARG)
       ___xxtofl (ARG)
     ___wmul
     ___xxtofl
     _silencio
       ___fldiv
       ___flmul (ARG)
       ___flsub (ARG)
         ___fladd
         ___fldiv (ARG)
       ___fltol (ARG)
       ___wmul (ARG)
       ___xxtofl (ARG)
     _tocar_nota
       ___fldiv
       ___flmul (ARG)
       ___flsub (ARG)
       ___fltol (ARG)
       ___wmul (ARG)
       ___xxtofl (ARG)
   _confT0

 Address spaces:
Name               Size   Autos  Total    Cost      Usage
BIGRAM             7FF      0     210      21       25.8%
EEDATA             100      0       0       0        0.0%
BITBANK7           100      0       0      18        0.0%
BANK7              100      0       0      19        0.0%
BITBANK6           100      0       0      16        0.0%
BANK6              100      0       0      17        0.0%
BITBANK5           100      0       0      14        0.0%
BANK5              100      0       0      15        0.0%
BITBANK4           100      0       0      12        0.0%
BANK4              100      0       0      13        0.0%
BITBANK3           100      0       0      10        0.0%
BANK3              100      0       0      11        0.0%
BITBANK2           100      0       0       8        0.0%
BANK2              100      0       0       9        0.0%
BITBANK1           100      0       0       6        0.0%
BANK1              100      0       0       7        0.0%
BITBANK0            A0      0       0       4        0.0%
BANK0               A0      0       0       5        0.0%
BITCOMRAM           5F      0       0       0        0.0%
COMRAM              5F     46      5C       1       96.8%
BITSFR               0      0       0     200        0.0%
SFR                  0      0       0     200        0.0%
STACK                0      0       0       2        0.0%
NULL                 0      0       0       0        0.0%
ABS                  0      0      5C      20        0.0%
DATA                 0      0     26C       3        0.0%
CODE                 0      0       0       0        0.0%


Microchip Technology PIC18 Macro Assembler V2.32 build 20210201212658 
Symbol Table                                                                                   Wed Oct 13 18:13:54 2021

           ___fldiv@aexp 0027             ___fldiv@bexp 0026                        _a 0053  
                      _b 0051                        _j 0059                        _k 0057  
                      _l 0055                        _s 004F             ___fldiv@sign 001F  
                     l40 6C7E                       l42 6C8C                       l51 6AEE  
                     l52 6B0E                       l44 6CB0                       l36 6C32  
                     l37 6C50                       l54 6B1C                       l39 6C5E  
                     l71 70B0                       l56 6B40                       l48 6AC2  
                     l64 707E                       l49 6AE0                       l67 708C  
                     l59 666C                       l91 67F2                       l84 737A  
                     l95 68C4                       l97 682C                       l99 683A  
    ___wmul@multiplicand 0003                      l110 687E                      l103 6850  
                    l105 685E                      l108 6870                      l118 6692  
                    l415 69D0                      l700 7714                      l702 7574  
                    l711 75BA                      l377 67D4                      l713 7632  
                    l705 7538                      l714 7620                      l732 77DA  
                    l741 7A48                      l742 7A36                      l646 7D2E  
                    l663 7E48                      l655 7FFE                      l647 7D1C  
                    l736 7B3E                      l672 7F18                      l648 7CE2  
                    l673 7F06                      l739 79D0                      l780 6DA0  
                    l749 7B00                      l773 6D08                      l688 66D8  
                    l776 6E64                      l787 6DFC                      _vel 005B  
                    wreg 000FE8             ___flmul@aexp 0020             ___flmul@bexp 0021  
           ___flmul@sign 001B             ___flmul@temp 0026             ___flmul@prod 0022  
           ___fltol@exp1 0031                     l2001 77CA                     l2011 781A  
                   l2003 77EA                     l2101 675A                     l2021 786A  
                   l2013 7824                     l2005 77FA                     l2111 67D2  
                   l2103 676A                     l2031 78AC                     l2023 7876  
                   l2015 783A                     l2105 6798                     l2041 790E  
                   l2033 78BC                     l2025 7884                     l2017 7846  
                   l2009 780E                     l2107 67A8                     l2051 79B6  
                   l2043 792A                     l2035 78D6                     l2027 7890  
                   l2019 785E                     l2211 7124                     l2131 70C2  
                   l2123 709A                     l2115 7076                     l1403 6658  
                   l2109 67CC                     l2061 79F2                     l2053 79C0  
                   l2045 7954                     l2037 78E6                     l2029 78A0  
                   l2133 70DE                     l2125 70A2                     l1405 6662  
                   l2071 7A64                     l2063 7A00                     l2055 79CE  
                   l2047 798A                     l2039 7902                     l1511 7B6C  
                   l1503 7B40                     l2151 729E                     l2135 70EA  
                   l2143 710E                     l1407 666A                     l2081 7ACE  
                   l2073 7A72                     l2065 7A2E                     l2057 79E0  
                   l2049 7998                     l1601 7D1A                     l1521 7BA6  
                   l1513 7B7C                     l1505 7B4C                     l2153 7352  
                   l2137 70F6                     l2145 7142                     l2129 70BE  
                   l2209 68A6                     l2091 7B24                     l2083 7AE8  
                   l2075 7A9C                     l2059 79EE                     l1611 7D70  
                   l1603 7D3C                     l1531 7BD4                     l1523 7BAC  
                   l1515 7B8C                     l1507 7B5A                     l2155 7356  
                   l2147 7194                     l2139 7102                     l2171 67E4  
                   l2085 7B04                     l2093 7B2A                     l2069 7A58  
                   l2077 7AA0                     l1701 7FEE                     l1621 7DAA  
                   l1613 7D7E                     l1605 7D4C                     l1541 7C08  
                   l1533 7BD6                     l1525 7BBE                     l1517 7B8E  
                   l1509 7B5C                     l2157 7372                     l2149 724C  
                   l2165 67D6                     l2095 7B2E                     l2087 7B14  
                   l2079 7ABA                     l1711 7398                     l1631 7E16  
                   l1623 7DAC                     l1615 7D8C                     l1551 7C44  
                   l1535 7BE6                     l1543 7C10                     l1527 7BC0  
                   l1519 7B96                     l2183 6848                     l2175 6800  
                   l2167 67DE                     l2089 7B22                     l1801 75D8  
                   l1713 73A8                     l1721 73D2                     l1705 737C  
                   l1641 7E6E                     l1633 7E18                     l1625 7DB6  
                   l1617 7D98                     l1609 7D60                     l1561 7C58  
                   l1553 7C48                     l1545 7C20                     l1537 7BF6  
                   l1529 7BC6                     l2177 6804                     l2169 67E0  
                   l2099 672C                     l1811 7642                     l1803 75DC  
                   l1731 73FE                     l1723 73E2                     l1715 73B8  
                   l1707 7388                     l1651 7E9C                     l1635 7E28  
                   l1619 7D9C                     l1627 7DBC                     l1571 7C6C  
                   l1563 7C5C                     l1555 7C4C                     l1547 7C32  
                   l1539 7C06                     l2179 6820                     l2195 6890  
                   l1821 76A4                     l1813 764E                     l1805 75EA  
                   l1733 740E                     l1741 7438                     l1725 73E8  
                   l1717 73C8                     l1709 7396                     l1653 7EAA  
                   l1645 7E82                     l1661 7EC8                     l1629 7DE2  
                   l1637 7E38                     l1573 7C70                     l1565 7C60  
                   l1557 7C50                     l1549 7C40                     l1581 7C80  
                   l1901 6D2E                     l1831 7702                     l1823 76BA  
                   l1815 765C                     l1807 7618                     l1751 747A  
                   l1743 7448                     l1735 741E                     l1727 73EE  
                   l1719 73CA                     l1655 7EB2                     l1647 7E8C  
                   l1639 7E5E                     l1663 7ED6                     l1591 7CF0  
                   l1583 7C84                     l1575 7C74                     l1567 7C64  
                   l1559 7C54                     l1911 6D88                     l1833 7708  
                   l1825 76D4                     l1817 7686                     l1745 745E  
                   l1737 742E                     l1729 73FC                     l1673 7F28  
                   l1681 7F7E                     l1665 7EDA                     l1657 7EB6  
                   l1649 7E9A                     l1593 7CFC                     l1585 7CAE  
                   l1577 7C78                     l1569 7C68                     l1921 6DEC  
                   l1913 6D8A                     l1905 6D42                     l1835 770A  
                   l1827 76F0                     l1819 768A                     l1771 74FC  
                   l1763 74B2                     l1747 746E                     l1755 748E  
                   l1739 7430                     l1691 7FD0                     l1683 7F8E  
                   l1675 7F34                     l1667 7EE8                     l1659 7EC6  
                   l1595 7D00                     l1587 7CCA                     l1579 7C7C  
                   l1843 6694                     l1851 68E2                     l1931 6E44  
                   l1923 6E0A                     l1915 6D96                     l1907 6D4A  
                   l1829 76F4                     l1781 7542                     l1773 7504  
                   l1765 74CC                     l1757 749E                     l1749 7476  
                   l1693 7FD6                     l1685 7F9E                     l1677 7F42  
                   l1669 7EFE                     l1597 7D0E                     l1589 7CDA  
                   l1845 66A4                     l1861 6932                     l1933 6E52  
                   l1925 6E0C                     l1917 6DD2                     l1909 6D56  
                   l1941 6C26                     l1791 759A                     l1783 7560  
                   l1775 7514                     l1767 74DC                     l1759 749E  
                   l1695 7FD8                     l1687 7FBE                     l1679 7F7C  
                   l1599 7D10                     l1871 695C                     l1863 6936  
                   l1855 68F6                     l1935 6E54                     l1927 6E10  
                   l1919 6DDE                     l1951 69D2                     l1943 6C34  
                   l1793 75A0                     l1785 7562                     l1777 7528  
                   l1769 74EC                     l1697 7FDE                     l1689 7FC2  
                   l1881 6984                     l1873 6966                     l1865 6944  
                   l1857 6920                     l1849 68CC                     l1929 6E34  
                   l1961 6B22                     l1953 6AB6                     l1945 6C62  
                   l1971 7722                     l1963 666E                     l1795 75AA  
                   l1787 7572                     l1779 7536                     l1699 7FEC  
                   l1883 6990                     l1875 6970                     l1859 6922  
                   l1955 6AC4                     l1947 6C8E                     l1939 6B42  
                   l1981 7762                     l1973 7730                     l1965 668A  
                   l1797 75B8                     l1789 7584                     l1885 69A0  
                   l1893 6CB4                     l1957 6AF2                     l1949 6C92  
                   l1991 7792                     l1983 7768                     l1975 7732  
                   l1799 75CA                     l1887 69B0                     l1895 6CC4  
                   l1959 6B1E                     l1993 7794                     l1985 7778  
                   l1977 7742                     l1969 7716                     l1889 69C0  
                   l1897 6CD2                     l1995 77A4                     l1987 777E  
                   l1979 7752                     l1899 6D18                     l1997 77B4  
                   l1989 7784                     l1999 77C4                     u2000 6DFC  
                   u2001 6DF8                     u2010 6E0A                     u2011 6E06  
                   u2100 7730                     u1300 7BE6                     u2020 6E44  
                   u2101 772C                     u1301 7BE2                     u2021 6E40  
                   u2110 7742                     u1310 7BF6                     u2030 6E52  
                   u2111 773E                     u1311 7BF2                     u2031 6E4E  
                   u2200 79EE                     u2120 7752                     u1400 7D3C  
                   u1320 7C32                     u2040 6C5E                     u2201 79EA  
                   u2121 774E                     u1401 7D38                     u1321 7C2E  
                   u2041 6C5A                     u2210 7A00                     u2130 7792  
                   u1410 7D4C                     u1330 7C40                     u1250 7B5A  
                   u2050 6C8C                     u2211 79FC                     u2131 778E  
                   u1411 7D48                     u1331 7C3C                     u1251 7B56  
                   u2051 6C88                     u2300 6798                     u2220 7A2E  
                   u2140 77A4                     u1500 7EAA                     u1420 7D7E  
                   u1340 7CAE                     u1260 7B6C                     u2060 6CB0  
                   u2301 6794                     u2221 7A2A                     u2141 77A0  
                   u1501 7EA6                     u1421 7D7A                     u1341 7CAA  
                   u1261 7B68                     u2061 6CAC                     u2310 67CC  
                   u2230 7A44                     u2150 77B4                     u1510 7EC6  
                   u1430 7D8C                     u1350 7CC6                     u1270 7B7C  
                   u2070 6AEE                     u2311 67C8                     u2231 7A40  
                   u2151 77B0                     u1511 7EC2                     u1431 7D88  
                   u1351 7CC0                     u1271 7B78                     u2071 6AEA  
                   u2240 7A58                     u2160 77EA                     u1600 7F9E  
                   u1520 7ED6                     u1440 7DAA                     u1360 7CC8  
                   u1280 7BBE                     u2080 6B1C                     u2320 708C  
                   u2400 67F2                     u2241 7A54                     u2161 77E6  
                   u1601 7F9A                     u1521 7ED2                     u1441 7DA6  
                   u1281 7BBA                     u2081 6B18                     u2321 7088  
                   u2401 67EE                     u2250 7A72                     u2170 77FA  
                   u1610 7FBE                     u1530 7EE8                     u1450 7DE2  
                   u1370 7CF0                     u1290 7BD4                     u2090 6B40  
                   u2330 709A                     u2410 6800                     u2251 7A6E  
                   u2171 77F6                     u1611 7FBA                     u1531 7EE4  
                   u1451 7DDE                     u1371 7CEC                     u1291 7BD0  
                   u2091 6B3C                     u2331 7096                     u2411 67FC  
                   u2260 7ABA                     u2180 7974                     u1700 745E  
                   u1620 7FD0                     u1540 7EFE                     u1460 7E28  
                   u1380 7D0E                     u2340 70B0                     u2420 6820  
                   u2261 7AB6                     u1701 745A                     u1621 7FCC  
                   u1541 7EFA                     u1461 7E24                     u1381 7D0A  
                   u2341 70AC                     u2421 681C                     u2270 7AE8  
                   u2190 79CE                     u1710 749E                     u1630 7FEC  
                   u1550 7F14                     u1470 7E5E                     u1390 7D2E  
                   u2350 70BE                     u2430 683A                     u2271 7AE4  
                   u2191 79CA                     u1711 749A                     u1631 7FE8  
                   u1551 7F10                     u1471 7E5A                     u1391 7D2A  
                   u2351 70BA                     u2431 6836                     u2280 7B22  
                   u1800 7618                     u1720 7514                     u1640 7396  
                   u1560 7F28                     u1480 7E6E                     u2360 70DE  
                   u2440 6848                     u2281 7B1E                     u2185 796A  
                   u1801 7614                     u1721 7510                     u1641 7392  
                   u1561 7F24                     u1481 7E6A                     u2361 70DA  
                   u2441 6844                     u2290 675A                     u1810 762E  
                   u1730 7536                     u1650 73A8                     u1570 7F42  
                   u1490 7E9A                     u2370 7194                     u2450 685E  
                   u2291 6756                     u1811 762A                     u1731 7532  
                   u1651 73A4                     u1571 7F3E                     u1491 7E96  
                   u2371 7190                     u2451 685A                     u1820 7642  
                   u1740 7560                     u1660 73B8                     u1580 7F7C  
                   u1900 6958                     u2380 729E                     u2460 686C  
                   u1821 763E                     u1741 755C                     u1661 73B4  
                   u1581 7F78                     u1901 6954                     u2381 729A  
                   u2461 6868                     u1830 765C                     u1750 7584  
                   u1670 73FC                     u1590 7F8E                     u1910 6980  
                   u2390 7372                     u2470 687E                     u1831 7658  
                   u1751 7580                     u1671 73F8                     u1591 7F8A  
                   u1911 697C                     u2391 736E                     u2471 687A  
                   u1840 76A4                     u1760 759A                     u1680 740E  
                   u1920 69A0                     u2480 688C                     u1841 76A0  
                   u1761 7596                     u1681 740A                     u1921 699C  
                   u2481 6888                     u1850 76D4                     u1770 75B8  
                   u1690 741E                     u1930 69B0                     u1851 76D0  
                   u1771 75B4                     u1691 741A                     u1931 69AC  
                   u1860 7702                     u1780 75D8                     u1940 6CC4  
                   u1861 76FE                     u1781 75D4                     u1941 6CC0  
                   u1790 75EA                     u1870 68E2                     u1950 6CD2  
                   u1791 75E6                     u1871 68DE                     u1951 6CCE  
                   u1880 6916                     u1960 6D2E                     u1961 6D2A  
                   u1890 6944                     u1970 6D84                     u1891 6940  
                   u1971 6D80                     u1980 6DCE                     u1885 690C  
                   u1981 6DCA                     u1990 6DEC                     u1991 6DE8  
                   _TMR0 000FD6                     _main 67D6                     fsr1h 000FE2  
                   fsr1l 000FE1                     fsr2l 000FD9                     prodh 000FF4  
                   prodl 000FF3                     start 0000          ___fldiv@new_exp 0020  
           ___param_bank 000000            ___fltol@sign1 0030          __end_of___fladd 8000  
                  ?_main 0001          __end_of___fldiv 7716          __end_of___flmul 7B40  
        __end_of___flsub 66DA          __end_of___fltol 69D2                    _TRISA 000F92  
                  _TRISB 000F93                    tablat 000FF5                    status 000FD8  
        __initialization 66DA             __end_of_main 68CC                   ??_main 0045  
          __activetblptr 000002                   _ADCON1 000FC1          tocar_nota@tfrec 0034  
       __end_of_cancion1 737C         __end_of___xxtofl 6E66             _cancion1$882 0041  
           _cancion1$883 0043                   ___fleq 672C                ??___fladd 0009  
                 ___wmul 666E                ??___fldiv 0017                ??___flmul 0017  
              ??___flsub 0030                ??___fltol 002C                   _confT0 6658  
                 clear_0 671C                   isa$std 000001             __pdataBIGRAM 05F0  
           __pdataCOMRAM 005B         __end_of_silencio 6B42                   tblptrh 000FF7  
                 tblptrl 000FF6                   tblptru 000FF8             ___xxtofl@arg 000B  
           ___xxtofl@exp 000A             ___xxtofl@val 0001               ___fleq@ff1 0007  
             ___fleq@ff2 000B               __accesstop 0060  __end_of__initialization 6722  
          ___rparam_used 000001               ___fltol@f1 0028           __pcstackCOMRAM 0001  
                ?___fleq 0007                  ?___wmul 0001                  ?_confT0 0001  
              ?_cancion1 0001                ?___xxtofl 0001                  __Hparam 0000  
                __Lparam 0000                ?_silencio 0032          __size_of___fleq 00AA  
                ___fladd 7B40                  ___fldiv 737C                  ___flmul 7716  
                ___flsub 6694                  ___fltol 68CC          __size_of___wmul 0026  
        __size_of_confT0 0016                  _cancion 05F0                  __pcinit 66DA  
                __ramtop 0800                  __ptext0 67D6                  __ptext1 6658  
                __ptext2 7076                  __ptext3 6B42                  __ptext4 69D2  
                __ptext5 6CB2                  __ptext6 68CC                  __ptext7 6694  
                __ptext8 7B40                  __ptext9 737C                  _buffer1 0047  
              _T0CONbits 000FD5               ??_cancion1 003F               ??___xxtofl 0005  
     tocar_nota@duracion 0032     end_of_initialization 6722            __Lmediumconst 0000  
             ??_silencio 0038                  postdec1 000FE5                  postinc0 000FEE  
                postinc2 000FDE                _PORTAbits 000F80                _PORTBbits 000F81  
             _tocar_nota 6B42              ___fladd@grs 0010            ___xxtofl@sign 0009  
            ___fldiv@grs 0022              ___fldiv@rem 001B              ___flmul@grs 001C  
         __end_of___fleq 67D6            __pidataBIGRAM 6E66           __end_of___wmul 6694  
          __pidataCOMRAM 6656           __end_of_confT0 666E      start_initialization 66DA  
               ??___fleq 000F                 ??___wmul 0005                 ??_confT0 0001  
            ?_tocar_nota 0032                ___fladd@a 0005                ___fladd@b 0001  
              ___fldiv@a 0013                ___fldiv@b 000F         silencio@duracion 0032  
              ___flmul@a 0013                ___flmul@b 000F              __pbssCOMRAM 0047  
              ___flsub@a 002C                ___flsub@b 0028        __size_of_cancion1 0306  
      __size_of___xxtofl 01B4                 ?___fladd 0001                 ?___fldiv 000F  
               ?___flmul 000F                 ?___flsub 0028                 ?___fltol 0028  
      __size_of_silencio 0170           ___wmul@product 0005      __size_of_tocar_nota 0170  
      ___wmul@multiplier 0001           _tocar_nota$880 0039                copy_data0 66EE  
               __Hrparam 0000                 __Lrparam 0000         __size_of___fladd 04C0  
       __size_of___fldiv 039A         __size_of___flmul 042A         __size_of___flsub 0046  
       __size_of___fltol 0106                 _cancion1 7076                 ___xxtofl 6CB2  
          silencio@tfrec 0034                 __ptext10 666E                 __ptext11 7716  
               __ptext12 672C            __size_of_main 00F6                 _silencio 69D2  
               isa$xinst 000000      tocar_nota@duracion2 003D             _silencio$881 0039  
           ??_tocar_nota 0038               _INTCONbits 000FF2       __end_of_tocar_nota 6CB2  
          ___fladd@signs 000D             ___fladd@aexp 000E             ___fladd@bexp 000F  
